Archive member included to satisfy reference by file (symbol)

D:/Skyworks/DTS/DTSX_VX_INT/SM4G_DTSVX_RT_CH_SWAP/libdrv\libdrv_HIFI0.a(bufmgr.o)
                              D:/Skyworks/DTS/DTSX_VX_INT/SM4G_DTSVX_RT_CH_SWAP/SM4G_HIFI5Core0/bin/HiFi_220715_v3p_HiFi0/Debug/source/kernel/target/hifi5/targetinit.o (drv_bufmgr_init)
D:/Skyworks/DTS/DTSX_VX_INT/SM4G_DTSVX_RT_CH_SWAP/libdrv\libdrv_HIFI0.a(clkrst.o)
                              D:/Skyworks/DTS/DTSX_VX_INT/SM4G_DTSVX_RT_CH_SWAP/SM4G_HIFI5Core0/bin/HiFi_220715_v3p_HiFi0/Debug/source/kernel/target/hifi5/targetinit.o (drv_hpdiv_config)
D:/Skyworks/DTS/DTSX_VX_INT/SM4G_DTSVX_RT_CH_SWAP/libdrv\libdrv_HIFI0.a(i2srx.o)
                              D:/Skyworks/DTS/DTSX_VX_INT/SM4G_DTSVX_RT_CH_SWAP/SM4G_HIFI5Core0/bin/HiFi_220715_v3p_HiFi0/Debug/source/kernel/target/hifi5/targetinit.o (drv_i2srx_Open)
D:/Skyworks/DTS/DTSX_VX_INT/SM4G_DTSVX_RT_CH_SWAP/libdrv\libdrv_HIFI0.a(i2stx.o)
                              D:/Skyworks/DTS/DTSX_VX_INT/SM4G_DTSVX_RT_CH_SWAP/SM4G_HIFI5Core0/bin/HiFi_220715_v3p_HiFi0/Debug/source/kernel/target/hifi5/targetinit.o (drv_i2stx_Open)
D:/Skyworks/DTS/DTSX_VX_INT/SM4G_DTSVX_RT_CH_SWAP/libdrv\libdrv_HIFI0.a(int.o)
                              D:/Skyworks/DTS/DTSX_VX_INT/SM4G_DTSVX_RT_CH_SWAP/SM4G_HIFI5Core0/bin/HiFi_220715_v3p_HiFi0/Debug/source/kernel/target/hifi5/targetinit.o (drv_irq_init)
D:/Skyworks/DTS/DTSX_VX_INT/SM4G_DTSVX_RT_CH_SWAP/libdrv\libdrv_HIFI0.a(mutex.o)
                              D:/Skyworks/DTS/DTSX_VX_INT/SM4G_DTSVX_RT_CH_SWAP/SM4G_HIFI5Core0/bin/HiFi_220715_v3p_HiFi0/Debug/source/kernel/target/hifi5/targetinit.o (drv_mutex_MsgRepInit)
D:/Skyworks/DTS/DTSX_VX_INT/SM4G_DTSVX_RT_CH_SWAP/libdrv\libdrv_HIFI0.a(padcfg.o)
                              D:/Skyworks/DTS/DTSX_VX_INT/SM4G_DTSVX_RT_CH_SWAP/SM4G_HIFI5Core0/bin/HiFi_220715_v3p_HiFi0/Debug/source/kernel/target/hifi5/targetinit.o (drv_padcfg_config)
D:/Skyworks/DTS/DTSX_VX_INT/SM4G_DTSVX_RT_CH_SWAP/libdrv\libdrv_HIFI0.a(pinmux.o)
                              D:/Skyworks/DTS/DTSX_VX_INT/SM4G_DTSVX_RT_CH_SWAP/libdrv\libdrv_HIFI0.a(clkrst.o) (g_pPINMUXTable)
D:/Skyworks/DTS/DTSX_VX_INT/SM4G_DTSVX_RT_CH_SWAP/libdrv\libdrv_HIFI0.a(pll.o)
                              D:/Skyworks/DTS/DTSX_VX_INT/SM4G_DTSVX_RT_CH_SWAP/SM4G_HIFI5Core0/bin/HiFi_220715_v3p_HiFi0/Debug/source/kernel/target/hifi5/targetinit.o (drv_pll_config)
D:/Skyworks/DTS/DTSX_VX_INT/SM4G_DTSVX_RT_CH_SWAP/libdrv\libdrv_HIFI0.a(frt.o)
                              D:/Skyworks/DTS/DTSX_VX_INT/SM4G_DTSVX_RT_CH_SWAP/libdrv\libdrv_HIFI0.a(int.o) (drv_frt_Start)
C:/usr/xtensa/XtDevTools/install/builds/RI-2022.10-win32/HiFi_220715_v3p/xtensa-elf/lib/\libc.a(memcmp.o)
                              D:/Skyworks/DTS/DTSX_VX_INT/SM4G_DTSVX_RT_CH_SWAP/SM4G_HIFI5Core0/bin/HiFi_220715_v3p_HiFi0/Debug/source/au_framework/src/isr_handler.o (memcmp)
C:/usr/xtensa/XtDevTools/install/builds/RI-2022.10-win32/HiFi_220715_v3p/xtensa-elf/lib/\libc.a(clibrary_init.o)
                              C:/usr/xtensa/XtDevTools/install/builds/RI-2022.10-win32/HiFi_220715_v3p/xtensa-elf/arch/lib/crt1-boards.o (__clibrary_init)
C:/usr/xtensa/XtDevTools/install/builds/RI-2022.10-win32/HiFi_220715_v3p/xtensa-elf/lib/\libc.a(xtensa_exit.o)
                              C:/usr/xtensa/XtDevTools/install/builds/RI-2022.10-win32/HiFi_220715_v3p/xtensa-elf/arch/lib/crt1-boards.o (exit)
C:/usr/xtensa/XtDevTools/install/builds/RI-2022.10-win32/HiFi_220715_v3p/xtensa-elf/lib/\libc.a(reent_bss.o)
                              C:/usr/xtensa/XtDevTools/install/builds/RI-2022.10-win32/HiFi_220715_v3p/xtensa-elf/arch/lib/crt1-boards.o (_init_reent_bss)
C:/usr/xtensa/XtDevTools/install/builds/RI-2022.10-win32/HiFi_220715_v3p/xtensa-elf/lib/\libc.a(memcpy.o)
                              D:/Skyworks/DTS/DTSX_VX_INT/SM4G_DTSVX_RT_CH_SWAP/SM4G_HIFI5Core0/bin/HiFi_220715_v3p_HiFi0/Debug/source/au_framework/src/isr_handler.o (memcpy)
C:/usr/xtensa/XtDevTools/install/builds/RI-2022.10-win32/HiFi_220715_v3p/xtensa-elf/lib/\libc.a(memset.o)
                              D:/Skyworks/DTS/DTSX_VX_INT/SM4G_DTSVX_RT_CH_SWAP/SM4G_HIFI5Core0/bin/HiFi_220715_v3p_HiFi0/Debug/source/au_framework/src/c0_audioprocess.o (memset)
C:/usr/xtensa/XtDevTools/install/builds/RI-2022.10-win32/HiFi_220715_v3p/xtensa-elf/lib/\libc.a(xexit.o)
                              C:/usr/xtensa/XtDevTools/install/builds/RI-2022.10-win32/HiFi_220715_v3p/xtensa-elf/lib/\libc.a(xtensa_exit.o) (_Exit)
C:/usr/xtensa/XtDevTools/install/builds/RI-2022.10-win32/HiFi_220715_v3p/xtensa-elf/lib/\libc.a(environ.o)
                              C:/usr/xtensa/XtDevTools/install/builds/RI-2022.10-win32/HiFi_220715_v3p/xtensa-elf/lib/\libc.a(clibrary_init.o) (environ)
C:/usr/xtensa/XtDevTools/install/builds/RI-2022.10-win32/HiFi_220715_v3p/xtensa-elf/lib/\libgdbio.a(miniboard.o)
                              C:/usr/xtensa/XtDevTools/install/builds/RI-2022.10-win32/HiFi_220715_v3p/xtensa-elf/arch/lib/crt1-boards.o (board_init)
C:/usr/xtensa/XtDevTools/install/builds/RI-2022.10-win32/HiFi_220715_v3p/xtensa-elf/arch/lib/\libhandler-reset.a(reset-vector.o)
                              (_ResetVector)
C:/usr/xtensa/XtDevTools/install/builds/RI-2022.10-win32/HiFi_220715_v3p/xtensa-elf/arch/lib/\libhandlers-board.a(debug-vector.o)
                              C:/usr/xtensa/XtDevTools/install/builds/RI-2022.10-win32/HiFi_220715_v3p/xtensa-elf/arch/lib/_vectors.o (_DebugExceptionVector)
C:/usr/xtensa/XtDevTools/install/builds/RI-2022.10-win32/HiFi_220715_v3p/xtensa-elf/arch/lib/\libhandlers-board.a(double-vector.o)
                              C:/usr/xtensa/XtDevTools/install/builds/RI-2022.10-win32/HiFi_220715_v3p/xtensa-elf/arch/lib/_vectors.o (_DoubleExceptionVector)
C:/usr/xtensa/XtDevTools/install/builds/RI-2022.10-win32/HiFi_220715_v3p/xtensa-elf/arch/lib/\libhandlers-board.a(kernel-vector.o)
                              C:/usr/xtensa/XtDevTools/install/builds/RI-2022.10-win32/HiFi_220715_v3p/xtensa-elf/arch/lib/_vectors.o (_KernelExceptionVector)
C:/usr/xtensa/XtDevTools/install/builds/RI-2022.10-win32/HiFi_220715_v3p/xtensa-elf/arch/lib/\libhandlers-board.a(memctl_default.o)
                              C:/usr/xtensa/XtDevTools/install/builds/RI-2022.10-win32/HiFi_220715_v3p/xtensa-elf/arch/lib/\libhandler-reset.a(reset-vector.o) (__prefctl_default)
C:/usr/xtensa/XtDevTools/install/builds/RI-2022.10-win32/HiFi_220715_v3p/xtensa-elf/arch/lib/\libhandlers-board.a(xtos-interrupt-enable.o)
                              D:/Skyworks/DTS/DTSX_VX_INT/SM4G_DTSVX_RT_CH_SWAP/libdrv\libdrv_HIFI0.a(int.o) (xtos_interrupt_enable)
C:/usr/xtensa/XtDevTools/install/builds/RI-2022.10-win32/HiFi_220715_v3p/xtensa-elf/arch/lib/\libhandlers-board.a(xtos-interrupt-disable.o)
                              D:/Skyworks/DTS/DTSX_VX_INT/SM4G_DTSVX_RT_CH_SWAP/libdrv\libdrv_HIFI0.a(int.o) (xtos_interrupt_disable)
C:/usr/xtensa/XtDevTools/install/builds/RI-2022.10-win32/HiFi_220715_v3p/xtensa-elf/arch/lib/\libhandlers-board.a(xtos-set-inthandler.o)
                              D:/Skyworks/DTS/DTSX_VX_INT/SM4G_DTSVX_RT_CH_SWAP/libdrv\libdrv_HIFI0.a(int.o) (xtos_set_interrupt_handler)
C:/usr/xtensa/XtDevTools/install/builds/RI-2022.10-win32/HiFi_220715_v3p/xtensa-elf/arch/lib/\libhandlers-board.a(exit.o)
                              C:/usr/xtensa/XtDevTools/install/builds/RI-2022.10-win32/HiFi_220715_v3p/xtensa-elf/arch/lib/crt1-boards.o (_exit)
C:/usr/xtensa/XtDevTools/install/builds/RI-2022.10-win32/HiFi_220715_v3p/xtensa-elf/arch/lib/\libhandlers-board.a(interrupt-table.o)
                              C:/usr/xtensa/XtDevTools/install/builds/RI-2022.10-win32/HiFi_220715_v3p/xtensa-elf/arch/lib/\libhandlers-board.a(xtos-interrupt-enable.o) (xtos_enabled)
C:/usr/xtensa/XtDevTools/install/builds/RI-2022.10-win32/HiFi_220715_v3p/xtensa-elf/arch/lib/\libhandlers-board.a(memerror-vector-S--vector-.o)
                              C:/usr/xtensa/XtDevTools/install/builds/RI-2022.10-win32/HiFi_220715_v3p/xtensa-elf/arch/lib/_vectors.o (_MemErrorVector)
C:/usr/xtensa/XtDevTools/install/builds/RI-2022.10-win32/HiFi_220715_v3p/xtensa-elf/arch/lib/\libhandlers-board.a(user-vector.o)
                              C:/usr/xtensa/XtDevTools/install/builds/RI-2022.10-win32/HiFi_220715_v3p/xtensa-elf/arch/lib/_vectors.o (_UserExceptionVector)
C:/usr/xtensa/XtDevTools/install/builds/RI-2022.10-win32/HiFi_220715_v3p/xtensa-elf/arch/lib/\libhandlers-board.a(int-lowpri-dispatcher.o)
                              C:/usr/xtensa/XtDevTools/install/builds/RI-2022.10-win32/HiFi_220715_v3p/xtensa-elf/arch/lib/\libhandlers-board.a(user-vector.o) (_xtos_l1int_handler)
C:/usr/xtensa/XtDevTools/install/builds/RI-2022.10-win32/HiFi_220715_v3p/xtensa-elf/arch/lib/\libhandlers-board.a(window-vectors.o)
                              C:/usr/xtensa/XtDevTools/install/builds/RI-2022.10-win32/HiFi_220715_v3p/xtensa-elf/arch/lib/_vectors.o (_WindowOverflow4)
C:/usr/xtensa/XtDevTools/install/builds/RI-2022.10-win32/HiFi_220715_v3p/xtensa-elf/arch/lib/\libhandlers-board.a(int-vector-level2.o)
                              C:/usr/xtensa/XtDevTools/install/builds/RI-2022.10-win32/HiFi_220715_v3p/xtensa-elf/arch/lib/_vectors.o (_Level2Vector)
C:/usr/xtensa/XtDevTools/install/builds/RI-2022.10-win32/HiFi_220715_v3p/xtensa-elf/arch/lib/\libhandlers-board.a(int-handler-level2.o)
                              C:/usr/xtensa/XtDevTools/install/builds/RI-2022.10-win32/HiFi_220715_v3p/xtensa-elf/arch/lib/\libhandlers-board.a(int-vector-level2.o) (_Level2FromVector)
C:/usr/xtensa/XtDevTools/install/builds/RI-2022.10-win32/HiFi_220715_v3p/xtensa-elf/arch/lib/\libhandlers-board.a(exc-unhandled.o)
                              C:/usr/xtensa/XtDevTools/install/builds/RI-2022.10-win32/HiFi_220715_v3p/xtensa-elf/arch/lib/\libhandlers-board.a(user-vector.o) (xtos_unhandled_exception)
C:/usr/xtensa/XtDevTools/install/builds/RI-2022.10-win32/HiFi_220715_v3p/xtensa-elf/arch/lib/\libhandlers-board.a(exc-syscall-handler.o)
                              C:/usr/xtensa/XtDevTools/install/builds/RI-2022.10-win32/HiFi_220715_v3p/xtensa-elf/arch/lib/\libhandlers-board.a(user-vector.o) (_xtos_syscall_handler)
C:/usr/xtensa/XtDevTools/install/builds/RI-2022.10-win32/HiFi_220715_v3p/xtensa-elf/arch/lib/\libhandlers-board.a(memerror-vector-S--handler-.o)
                              C:/usr/xtensa/XtDevTools/install/builds/RI-2022.10-win32/HiFi_220715_v3p/xtensa-elf/arch/lib/\libhandlers-board.a(memerror-vector-S--vector-.o) (_MemErrorHandler)
C:/usr/xtensa/XtDevTools/install/builds/RI-2022.10-win32/HiFi_220715_v3p/xtensa-elf/arch/lib/\libhandlers-board.a(exc-return.o)
                              C:/usr/xtensa/XtDevTools/install/builds/RI-2022.10-win32/HiFi_220715_v3p/xtensa-elf/arch/lib/\libhandlers-board.a(int-lowpri-dispatcher.o) (_xtos_return_from_exc)
C:/usr/xtensa/XtDevTools/install/builds/RI-2022.10-win32/HiFi_220715_v3p/xtensa-elf/arch/lib/\libhal.a(cache_asm--dcache_all_writeback.o)
                              C:/usr/xtensa/XtDevTools/install/builds/RI-2022.10-win32/HiFi_220715_v3p/xtensa-elf/arch/lib/\libhandlers-board.a(exit.o) (xthal_dcache_all_writeback)
C:/usr/xtensa/XtDevTools/install/builds/RI-2022.10-win32/HiFi_220715_v3p/xtensa-elf/arch/lib/\libhal.a(cache_asm--dcache_region_writeback.o)
                              D:/Skyworks/DTS/DTSX_VX_INT/SM4G_DTSVX_RT_CH_SWAP/SM4G_HIFI5Core0/bin/HiFi_220715_v3p_HiFi0/Debug/source/au_framework/src/isr_handler.o (xthal_dcache_region_writeback)
C:/usr/xtensa/XtDevTools/install/builds/RI-2022.10-win32/HiFi_220715_v3p/xtensa-elf/arch/lib/\libhal.a(cache_asm--dcache_region_writeback_inv.o)
                              D:/Skyworks/DTS/DTSX_VX_INT/SM4G_DTSVX_RT_CH_SWAP/SM4G_HIFI5Core0/bin/HiFi_220715_v3p_HiFi0/Debug/source/au_framework/src/isr_handler.o (xthal_dcache_region_writeback_inv)
C:/usr/xtensa/XtDevTools/install/builds/RI-2022.10-win32/HiFi_220715_v3p/xtensa-elf/arch/lib/\libhal.a(cache_asm--hw_configid0.o)
                              C:/usr/xtensa/XtDevTools/install/builds/RI-2022.10-win32/HiFi_220715_v3p/xtensa-elf/arch/lib/_vectors.o (xthals_hw_configid0)
C:/usr/xtensa/XtDevTools/install/builds/RI-2022.10-win32/HiFi_220715_v3p/xtensa-elf/arch/lib/\libhal.a(cache_asm--hw_configid1.o)
                              C:/usr/xtensa/XtDevTools/install/builds/RI-2022.10-win32/HiFi_220715_v3p/xtensa-elf/arch/lib/_vectors.o (xthals_hw_configid1)
C:/usr/xtensa/XtDevTools/install/builds/RI-2022.10-win32/HiFi_220715_v3p/xtensa-elf/arch/lib/\libhal.a(cache_asm--release_major.o)
                              C:/usr/xtensa/XtDevTools/install/builds/RI-2022.10-win32/HiFi_220715_v3p/xtensa-elf/arch/lib/_vectors.o (xthals_release_major)
C:/usr/xtensa/XtDevTools/install/builds/RI-2022.10-win32/HiFi_220715_v3p/xtensa-elf/arch/lib/\libhal.a(cache_asm--release_minor.o)
                              C:/usr/xtensa/XtDevTools/install/builds/RI-2022.10-win32/HiFi_220715_v3p/xtensa-elf/arch/lib/_vectors.o (xthals_release_minor)
C:/usr/xtensa/XtDevTools/install/builds/RI-2022.10-win32/HiFi_220715_v3p/xtensa-elf/arch/lib/\libhal.a(cache_asm--set_cache_prefetch_long.o)
                              D:/Skyworks/DTS/DTSX_VX_INT/SM4G_DTSVX_RT_CH_SWAP/SM4G_HIFI5Core0/bin/HiFi_220715_v3p_HiFi0/Debug/source/kernel/target/hifi5/targetinit.o (xthal_set_cache_prefetch_long)
C:/usr/xtensa/XtDevTools/install/builds/RI-2022.10-win32/HiFi_220715_v3p/xtensa-elf/arch/lib/\libhal.a(const--intlevel.o)
                              C:/usr/xtensa/XtDevTools/install/builds/RI-2022.10-win32/HiFi_220715_v3p/xtensa-elf/arch/lib/\libhandlers-board.a(xtos-set-inthandler.o) (Xthal_intlevel)

Allocating common symbols
Common symbol       size              file

_MemErrorSave       0xc               C:/usr/xtensa/XtDevTools/install/builds/RI-2022.10-win32/HiFi_220715_v3p/xtensa-elf/arch/lib/\libhandlers-board.a(memerror-vector-S--handler-.o)

Linker script and memory map

LOAD C:/usr/xtensa/XtDevTools/install/builds/RI-2022.10-win32/HiFi_220715_v3p/xtensa-elf/arch/lib/crt1-boards.o
LOAD C:/usr/xtensa/XtDevTools/install/builds/RI-2022.10-win32/HiFi_220715_v3p/xtensa-elf/lib/xcc/crti.o
LOAD C:/usr/xtensa/XtDevTools/install/builds/RI-2022.10-win32/HiFi_220715_v3p/xtensa-elf/lib/xcc/crtbegin.o
LOAD C:/usr/xtensa/XtDevTools/install/builds/RI-2022.10-win32/HiFi_220715_v3p/xtensa-elf/arch/lib/_sharedvectors.o
LOAD C:/usr/xtensa/XtDevTools/install/builds/RI-2022.10-win32/HiFi_220715_v3p/xtensa-elf/arch/lib/_vectors.o
LOAD D:/Skyworks/DTS/DTSX_VX_INT/SM4G_DTSVX_RT_CH_SWAP/SM4G_HIFI5Core0/bin/HiFi_220715_v3p_HiFi0/Debug/source/au_framework/src/c0_audiobufferhandle.o
LOAD D:/Skyworks/DTS/DTSX_VX_INT/SM4G_DTSVX_RT_CH_SWAP/SM4G_HIFI5Core0/bin/HiFi_220715_v3p_HiFi0/Debug/source/au_framework/src/c0_audiopostprocess.o
LOAD D:/Skyworks/DTS/DTSX_VX_INT/SM4G_DTSVX_RT_CH_SWAP/SM4G_HIFI5Core0/bin/HiFi_220715_v3p_HiFi0/Debug/source/au_framework/src/c0_audioprocess.o
LOAD D:/Skyworks/DTS/DTSX_VX_INT/SM4G_DTSVX_RT_CH_SWAP/SM4G_HIFI5Core0/bin/HiFi_220715_v3p_HiFi0/Debug/source/au_framework/src/c0_main.o
LOAD D:/Skyworks/DTS/DTSX_VX_INT/SM4G_DTSVX_RT_CH_SWAP/SM4G_HIFI5Core0/bin/HiFi_220715_v3p_HiFi0/Debug/source/au_framework/src/isr_handler.o
LOAD D:/Skyworks/DTS/DTSX_VX_INT/SM4G_DTSVX_RT_CH_SWAP/SM4G_HIFI5Core0/bin/HiFi_220715_v3p_HiFi0/Debug/source/au_framework/src/isr_receive.o
LOAD D:/Skyworks/DTS/DTSX_VX_INT/SM4G_DTSVX_RT_CH_SWAP/SM4G_HIFI5Core0/bin/HiFi_220715_v3p_HiFi0/Debug/source/au_framework/src/isr_transmit.o
LOAD D:/Skyworks/DTS/DTSX_VX_INT/SM4G_DTSVX_RT_CH_SWAP/SM4G_HIFI5Core0/bin/HiFi_220715_v3p_HiFi0/Debug/source/customerpostprocess/c0_customerpostprocess.o
LOAD D:/Skyworks/DTS/DTSX_VX_INT/SM4G_DTSVX_RT_CH_SWAP/SM4G_HIFI5Core0/bin/HiFi_220715_v3p_HiFi0/Debug/source/kernel/target/hifi5/targetinit.o
LOAD D:/Skyworks/DTS/DTSX_VX_INT/SM4G_DTSVX_RT_CH_SWAP/SM4G_HIFI5Core0/bin/HiFi_220715_v3p_HiFi0/Debug/source/kernel/target/hifi5/vmem.o
LOAD D:/Skyworks/DTS/DTSX_VX_INT/SM4G_DTSVX_RT_CH_SWAP/libdrv\libdrv_HIFI0.a
LOAD C:/usr/xtensa/XtDevTools/install/builds/RI-2022.10-win32/HiFi_220715_v3p/xtensa-elf/lib/\libstdc++.a
LOAD C:/usr/xtensa/XtDevTools/install/builds/RI-2022.10-win32/HiFi_220715_v3p/xtensa-elf/lib/\libm.a
LOAD C:/usr/xtensa/XtDevTools/install/builds/RI-2022.10-win32/HiFi_220715_v3p/xtensa-elf/lib/xcc/\libgcc.a
LOAD C:/usr/xtensa/XtDevTools/install/builds/RI-2022.10-win32/HiFi_220715_v3p/xtensa-elf/lib/\libc.a
LOAD C:/usr/xtensa/XtDevTools/install/builds/RI-2022.10-win32/HiFi_220715_v3p/xtensa-elf/lib/\libgdbio.a
LOAD C:/usr/xtensa/XtDevTools/install/builds/RI-2022.10-win32/HiFi_220715_v3p/xtensa-elf/lib/\libc.a
LOAD C:/usr/xtensa/XtDevTools/install/builds/RI-2022.10-win32/HiFi_220715_v3p/xtensa-elf/arch/lib/\libhandler-reset.a
LOAD C:/usr/xtensa/XtDevTools/install/builds/RI-2022.10-win32/HiFi_220715_v3p/xtensa-elf/arch/lib/\libhandlers-board.a
LOAD C:/usr/xtensa/XtDevTools/install/builds/RI-2022.10-win32/HiFi_220715_v3p/xtensa-elf/lib/\libgdbio.a
LOAD C:/usr/xtensa/XtDevTools/install/builds/RI-2022.10-win32/HiFi_220715_v3p/xtensa-elf/arch/lib/\libhal.a
LOAD C:/usr/xtensa/XtDevTools/install/builds/RI-2022.10-win32/HiFi_220715_v3p/xtensa-elf/lib/\libc.a
LOAD C:/usr/xtensa/XtDevTools/install/builds/RI-2022.10-win32/HiFi_220715_v3p/xtensa-elf/lib/xcc/\libgcc.a
LOAD C:/usr/xtensa/XtDevTools/install/builds/RI-2022.10-win32/HiFi_220715_v3p/xtensa-elf/lib/xcc/crtend.o
LOAD C:/usr/xtensa/XtDevTools/install/builds/RI-2022.10-win32/HiFi_220715_v3p/xtensa-elf/lib/xcc/crtn.o
                0x50000000                _memmap_mem_srom_start = 0x50000000
                0x50001000                _memmap_mem_srom_end = 0x50001000
                0x60000000                _memmap_mem_sram_start = 0x60000000
                0x60073400                _memmap_mem_sram_end = 0x60073400
                0x80343000                _memmap_mem_sramuc_start = 0x80343000
                0x8036ec00                _memmap_mem_sramuc_end = 0x8036ec00
                0x80000000                _memmap_mem_sramicc_start = 0x80000000
                0x800d2000                _memmap_mem_sramicc_end = 0x800d2000
                0x50000000                _memmap_seg_srom0_start = 0x50000000
                0x500002e0                _memmap_seg_srom0_max = 0x500002e0
                0x500002e0                _memmap_seg_srom1_start = 0x500002e0
                0x50000310                _memmap_seg_srom1_max = 0x50000310
                0x50000310                _memmap_seg_srom2_start = 0x50000310
                0x50000490                _memmap_seg_srom2_max = 0x50000490
                0x50000490                _memmap_seg_srom3_start = 0x50000490
                0x50001000                _memmap_seg_srom3_max = 0x50001000
                0x60000000                _memmap_seg_sram0_start = 0x60000000
                0x60000178                _memmap_seg_sram0_max = 0x60000178
                0x60000178                _memmap_seg_sram1_start = 0x60000178
                0x6000017c                _memmap_seg_sram1_max = 0x6000017c
                0x6000017c                _memmap_seg_sram2_start = 0x6000017c
                0x60000198                _memmap_seg_sram2_max = 0x60000198
                0x60000198                _memmap_seg_sram3_start = 0x60000198
                0x600001a0                _memmap_seg_sram3_max = 0x600001a0
                0x600001a0                _memmap_seg_sram4_start = 0x600001a0
                0x600001d8                _memmap_seg_sram4_max = 0x600001d8
                0x600001d8                _memmap_seg_sram5_start = 0x600001d8
                0x600001dc                _memmap_seg_sram5_max = 0x600001dc
                0x600001dc                _memmap_seg_sram6_start = 0x600001dc
                0x600001f8                _memmap_seg_sram6_max = 0x600001f8
                0x600001f8                _memmap_seg_sram7_start = 0x600001f8
                0x600001fc                _memmap_seg_sram7_max = 0x600001fc
                0x600001fc                _memmap_seg_sram8_start = 0x600001fc
                0x60000218                _memmap_seg_sram8_max = 0x60000218
                0x60000218                _memmap_seg_sram9_start = 0x60000218
                0x6000021c                _memmap_seg_sram9_max = 0x6000021c
                0x6000021c                _memmap_seg_sram10_start = 0x6000021c
                0x60000238                _memmap_seg_sram10_max = 0x60000238
                0x60000238                _memmap_seg_KERNEL_CODE_DATA_start = 0x60000238
                0x60008638                _memmap_seg_KERNEL_CODE_DATA_max = 0x60008638
                0x60008638                _memmap_seg_FRAMEWORK_CODE_start = 0x60008638
                0x60027a38                _memmap_seg_FRAMEWORK_CODE_max = 0x60027a38
                0x60027a38                _memmap_seg_FRAMEWORK_DATA_start = 0x60027a38
                0x6004d238                _memmap_seg_FRAMEWORK_DATA_max = 0x6004d238
                0x6004d238                _memmap_seg_INBITSTREAM_DATA_start = 0x6004d238
                0x60059238                _memmap_seg_INBITSTREAM_DATA_max = 0x60059238
                0x80000000                _memmap_seg_ICC_HOST_DATA_start = 0x80000000
                0x8000a000                _memmap_seg_ICC_HOST_DATA_max = 0x8000a000
                0x8000a000                _memmap_seg_ICC_DSP_DATA_start = 0x8000a000
                0x80016800                _memmap_seg_ICC_DSP_DATA_max = 0x80016800
                0x80016800                _memmap_seg_ICC_OUTPCM_DATA_start = 0x80016800
                0x80076800                _memmap_seg_ICC_OUTPCM_DATA_max = 0x80076800
                0x80076800                _memmap_seg_ICC_METADATA_start = 0x80076800
                0x800c5800                _memmap_seg_ICC_METADATA_max = 0x800c5800
                0x800c5800                _memmap_seg_ICC_RESERVED_MEM_start = 0x800c5800
                0x800d2000                _memmap_seg_ICC_RESERVED_MEM_max = 0x800d2000
                0x80343000                _memmap_seg_FRAMEWORK_UC_start = 0x80343000
                0x8034b000                _memmap_seg_FRAMEWORK_UC_max = 0x8034b000
                0x00000000                _rom_store_table = 0x0
                [!provide]                        PROVIDE (_memmap_reset_vector = 0x50000000)
                0x00024400                _memmap_cacheattr_wb_base = 0x24400
                0x00021100                _memmap_cacheattr_wt_base = 0x21100
                0x00022200                _memmap_cacheattr_bp_base = 0x22200
                0xfff000ff                _memmap_cacheattr_unused_mask = 0xfff000ff
                0x2222442f                _memmap_cacheattr_wb_trapnull = 0x2222442f
                0x2222442f                _memmap_cacheattr_wba_trapnull = 0x2222442f
                0x2222552f                _memmap_cacheattr_wbna_trapnull = 0x2222552f
                0x2222112f                _memmap_cacheattr_wt_trapnull = 0x2222112f
                0x2222222f                _memmap_cacheattr_bp_trapnull = 0x2222222f
                0xfff244ff                _memmap_cacheattr_wb_strict = 0xfff244ff
                0xfff211ff                _memmap_cacheattr_wt_strict = 0xfff211ff
                0xfff222ff                _memmap_cacheattr_bp_strict = 0xfff222ff
                0x22224422                _memmap_cacheattr_wb_allvalid = 0x22224422
                0x22221122                _memmap_cacheattr_wt_allvalid = 0x22221122
                0x22222222                _memmap_cacheattr_bp_allvalid = 0x22222222
                0x0000001c                _memmap_region_map = 0x1c
                0x2222442f                PROVIDE (_memmap_cacheattr_reset = _memmap_cacheattr_wb_trapnull)

.ResetVector.text
                0x50000000      0x12c
                0x50000000                _ResetVector_text_start = ABSOLUTE (.)
 *(.ResetVector.text)
 .ResetVector.text
                0x50000000      0x129 C:/usr/xtensa/XtDevTools/install/builds/RI-2022.10-win32/HiFi_220715_v3p/xtensa-elf/arch/lib/\libhandler-reset.a(reset-vector.o)
                0x50000000                _ResetVector
                0x5000003c                _ResetHandler
                0x5000012c                . = ALIGN (0x4)
 *fill*         0x50000129        0x3 
                0x5000012c                _ResetVector_text_end = ABSOLUTE (.)

.ResetHandler.text
                0x5000012c        0x0
                0x5000012c                _ResetHandler_text_start = ABSOLUTE (.)
 *(.ResetHandler.literal .ResetHandler.text)
                0x5000012c                . = ALIGN (0x4)
                0x5000012c                _ResetHandler_text_end = ABSOLUTE (.)
                0x50000130                _memmap_seg_srom0_end = ALIGN (0x8)

.MemoryExceptionVector.literal
                0x500002e0        0x8
                0x500002e0                _MemoryExceptionVector_literal_start = ABSOLUTE (.)
 *(.MemoryExceptionVector.literal)
 .MemoryExceptionVector.literal
                0x500002e0        0x8 C:/usr/xtensa/XtDevTools/install/builds/RI-2022.10-win32/HiFi_220715_v3p/xtensa-elf/arch/lib/\libhandlers-board.a(memerror-vector-S--vector-.o)
                0x500002e8                . = ALIGN (0x4)
                0x500002e8                _MemoryExceptionVector_literal_end = ABSOLUTE (.)
                0x500002e8                _memmap_seg_srom1_end = ALIGN (0x8)

.MemoryExceptionVector.text
                0x50000310       0xb0
                0x50000310                _MemoryExceptionVector_text_start = ABSOLUTE (.)
 *(.MemoryExceptionVector.text)
 .MemoryExceptionVector.text
                0x50000310       0xb0 C:/usr/xtensa/XtDevTools/install/builds/RI-2022.10-win32/HiFi_220715_v3p/xtensa-elf/arch/lib/\libhandlers-board.a(memerror-vector-S--vector-.o)
                0x50000310                _MemErrorVector
                0x500003c0                . = ALIGN (0x4)
                0x500003c0                _MemoryExceptionVector_text_end = ABSOLUTE (.)
                0x500003c0                _memmap_seg_srom2_end = ALIGN (0x8)

.srom.rodata    0x50000490        0x0
                0x50000490                _srom_rodata_start = ABSOLUTE (.)
 *(.srom.rodata)
                0x50000490                . = ALIGN (0x4)
                0x50000490                _srom_rodata_end = ABSOLUTE (.)

.srom.text      0x50000490        0x0
                0x50000490                _srom_text_start = ABSOLUTE (.)
 *(.srom.literal .srom.text)
                0x50000490                . = ALIGN (0x4)
                0x50000490                _srom_text_end = ABSOLUTE (.)
                0x50000490                _memmap_seg_srom3_end = ALIGN (0x8)
                0x50000490                _memmap_mem_srom_max = ABSOLUTE (.)

.WindowVectors.text
                0x60000000      0x16c
                0x60000000                _WindowVectors_text_start = ABSOLUTE (.)
 *(.WindowVectors.text)
 .WindowVectors.text
                0x60000000      0x16a C:/usr/xtensa/XtDevTools/install/builds/RI-2022.10-win32/HiFi_220715_v3p/xtensa-elf/arch/lib/\libhandlers-board.a(window-vectors.o)
                0x60000000                _WindowOverflow4
                0x60000010                _xtos_alloca_handler
                0x60000040                _WindowUnderflow4
                0x60000080                _WindowOverflow8
                0x600000c0                _WindowUnderflow8
                0x60000100                _WindowOverflow12
                0x60000140                _WindowUnderflow12
                0x6000016c                . = ALIGN (0x4)
 *fill*         0x6000016a        0x2 
                0x6000016c                _WindowVectors_text_end = ABSOLUTE (.)
                0x60000170                _memmap_seg_sram0_end = ALIGN (0x8)

.Level2InterruptVector.literal
                0x60000178        0x0
                0x60000178                _Level2InterruptVector_literal_start = ABSOLUTE (.)
 *(.Level2InterruptVector.literal)
                0x60000178                . = ALIGN (0x4)
                0x60000178                _Level2InterruptVector_literal_end = ABSOLUTE (.)
                0x60000178                _memmap_seg_sram1_end = ALIGN (0x8)

.Level2InterruptVector.text
                0x6000017c        0x8
                0x6000017c                _Level2InterruptVector_text_start = ABSOLUTE (.)
 *(.Level2InterruptVector.text)
 .Level2InterruptVector.text
                0x6000017c        0x6 C:/usr/xtensa/XtDevTools/install/builds/RI-2022.10-win32/HiFi_220715_v3p/xtensa-elf/arch/lib/\libhandlers-board.a(int-vector-level2.o)
                0x6000017c                _Level2Vector
                0x60000184                . = ALIGN (0x4)
 *fill*         0x60000182        0x2 
                0x60000184                _Level2InterruptVector_text_end = ABSOLUTE (.)
                0x60000188                _memmap_seg_sram2_end = ALIGN (0x8)

.DebugExceptionVector.literal
                0x60000198        0x0
                0x60000198                _DebugExceptionVector_literal_start = ABSOLUTE (.)
 *(.DebugExceptionVector.literal)
                0x60000198                . = ALIGN (0x4)
                0x60000198                _DebugExceptionVector_literal_end = ABSOLUTE (.)
                0x60000198                _memmap_seg_sram3_end = ALIGN (0x8)

.DebugExceptionVector.text
                0x600001a0        0xc
                0x600001a0                _DebugExceptionVector_text_start = ABSOLUTE (.)
 *(.DebugExceptionVector.text)
 .DebugExceptionVector.text
                0x600001a0        0xb C:/usr/xtensa/XtDevTools/install/builds/RI-2022.10-win32/HiFi_220715_v3p/xtensa-elf/arch/lib/\libhandlers-board.a(debug-vector.o)
                0x600001a0                _DebugExceptionVector
                0x600001ac                . = ALIGN (0x4)
 *fill*         0x600001ab        0x1 
                0x600001ac                _DebugExceptionVector_text_end = ABSOLUTE (.)
                0x600001b0                _memmap_seg_sram4_end = ALIGN (0x8)

.KernelExceptionVector.literal
                0x600001d8        0x0
                0x600001d8                _KernelExceptionVector_literal_start = ABSOLUTE (.)
 *(.KernelExceptionVector.literal)
                0x600001d8                . = ALIGN (0x4)
                0x600001d8                _KernelExceptionVector_literal_end = ABSOLUTE (.)
                0x600001d8                _memmap_seg_sram5_end = ALIGN (0x8)

.KernelExceptionVector.text
                0x600001dc        0x8
                0x600001dc                _KernelExceptionVector_text_start = ABSOLUTE (.)
 *(.KernelExceptionVector.text)
 .KernelExceptionVector.text
                0x600001dc        0x6 C:/usr/xtensa/XtDevTools/install/builds/RI-2022.10-win32/HiFi_220715_v3p/xtensa-elf/arch/lib/\libhandlers-board.a(kernel-vector.o)
                0x600001dc                _KernelExceptionVector
                0x600001e4                . = ALIGN (0x4)
 *fill*         0x600001e2        0x2 
                0x600001e4                _KernelExceptionVector_text_end = ABSOLUTE (.)
                0x600001e8                _memmap_seg_sram6_end = ALIGN (0x8)

.UserExceptionVector.literal
                0x600001f8        0x4
                0x600001f8                _UserExceptionVector_literal_start = ABSOLUTE (.)
 *(.UserExceptionVector.literal)
 .UserExceptionVector.literal
                0x600001f8        0x4 C:/usr/xtensa/XtDevTools/install/builds/RI-2022.10-win32/HiFi_220715_v3p/xtensa-elf/arch/lib/\libhandlers-board.a(user-vector.o)
                0x600001fc                . = ALIGN (0x4)
                0x600001fc                _UserExceptionVector_literal_end = ABSOLUTE (.)
                0x60000200                _memmap_seg_sram7_end = ALIGN (0x8)

.UserExceptionVector.text
                0x600001fc        0xc
                0x600001fc                _UserExceptionVector_text_start = ABSOLUTE (.)
 *(.UserExceptionVector.text)
 .UserExceptionVector.text
                0x600001fc        0xb C:/usr/xtensa/XtDevTools/install/builds/RI-2022.10-win32/HiFi_220715_v3p/xtensa-elf/arch/lib/\libhandlers-board.a(user-vector.o)
                0x600001fc                _UserExceptionVector
                0x60000208                . = ALIGN (0x4)
 *fill*         0x60000207        0x1 
                0x60000208                _UserExceptionVector_text_end = ABSOLUTE (.)
                0x60000208                _memmap_seg_sram8_end = ALIGN (0x8)

.DoubleExceptionVector.literal
                0x60000218        0x0
                0x60000218                _DoubleExceptionVector_literal_start = ABSOLUTE (.)
 *(.DoubleExceptionVector.literal)
                0x60000218                . = ALIGN (0x4)
                0x60000218                _DoubleExceptionVector_literal_end = ABSOLUTE (.)
                0x60000218                _memmap_seg_sram9_end = ALIGN (0x8)

.DoubleExceptionVector.text
                0x6000021c        0x8
                0x6000021c                _DoubleExceptionVector_text_start = ABSOLUTE (.)
 *(.DoubleExceptionVector.text)
 .DoubleExceptionVector.text
                0x6000021c        0x6 C:/usr/xtensa/XtDevTools/install/builds/RI-2022.10-win32/HiFi_220715_v3p/xtensa-elf/arch/lib/\libhandlers-board.a(double-vector.o)
                0x6000021c                _DoubleExceptionVector
                0x60000224                . = ALIGN (0x4)
 *fill*         0x60000222        0x2 
                0x60000224                _DoubleExceptionVector_text_end = ABSOLUTE (.)
                0x60000228                _memmap_seg_sram10_end = ALIGN (0x8)

.sram.rodata    0x60000238        0x0
                0x60000238                _sram_rodata_start = ABSOLUTE (.)
 *(.sram.rodata)
                0x60000238                . = ALIGN (0x4)
                0x60000238                _sram_rodata_end = ABSOLUTE (.)

.clib.rodata    0x60000238        0x0
                0x60000238                _clib_rodata_start = ABSOLUTE (.)
 *(.clib.rodata)
                0x60000238                . = ALIGN (0x4)
                0x60000238                _clib_rodata_end = ABSOLUTE (.)

.rtos.rodata    0x60000240       0x40
                0x60000240                _rtos_rodata_start = ABSOLUTE (.)
 *(.rtos.rodata)
 .rtos.rodata   0x60000240       0x40 C:/usr/xtensa/XtDevTools/install/builds/RI-2022.10-win32/HiFi_220715_v3p/xtensa-elf/arch/lib/\libhal.a(const--intlevel.o)
                0x60000240                Xthal_intlevel
                0x60000280                . = ALIGN (0x4)
                0x60000280                _rtos_rodata_end = ABSOLUTE (.)

.rodata         0x60000280      0x3b8
                0x60000280                _rodata_start = ABSOLUTE (.)
 *(.rodata)
 .rodata        0x60000280       0x2c D:/Skyworks/DTS/DTSX_VX_INT/SM4G_DTSVX_RT_CH_SWAP/SM4G_HIFI5Core0/bin/HiFi_220715_v3p_HiFi0/Debug/source/au_framework/src/c0_main.o
 .rodata        0x600002ac       0x10 D:/Skyworks/DTS/DTSX_VX_INT/SM4G_DTSVX_RT_CH_SWAP/SM4G_HIFI5Core0/bin/HiFi_220715_v3p_HiFi0/Debug/source/kernel/target/hifi5/vmem.o
 .rodata        0x600002bc       0x6c D:/Skyworks/DTS/DTSX_VX_INT/SM4G_DTSVX_RT_CH_SWAP/libdrv\libdrv_HIFI0.a(clkrst.o)
 .rodata        0x60000328       0x48 D:/Skyworks/DTS/DTSX_VX_INT/SM4G_DTSVX_RT_CH_SWAP/libdrv\libdrv_HIFI0.a(i2srx.o)
 .rodata        0x60000370       0x48 D:/Skyworks/DTS/DTSX_VX_INT/SM4G_DTSVX_RT_CH_SWAP/libdrv\libdrv_HIFI0.a(i2stx.o)
 *fill*         0x600003b8        0x8 
 .rodata        0x600003c0      0x1c0 D:/Skyworks/DTS/DTSX_VX_INT/SM4G_DTSVX_RT_CH_SWAP/libdrv\libdrv_HIFI0.a(int.o)
                0x60000498                drv_irq_src_forceable
 .rodata        0x60000580       0x50 D:/Skyworks/DTS/DTSX_VX_INT/SM4G_DTSVX_RT_CH_SWAP/libdrv\libdrv_HIFI0.a(mutex.o)
 *(SORT_BY_NAME(.rodata.sort.*))
 *(SORT_BY_NAME(.rodata.keepsort.*) .rodata.keep.*)
 *(.rodata.*)
 .rodata.str1.1
                0x600005d0       0x32 D:/Skyworks/DTS/DTSX_VX_INT/SM4G_DTSVX_RT_CH_SWAP/SM4G_HIFI5Core0/bin/HiFi_220715_v3p_HiFi0/Debug/source/au_framework/src/isr_handler.o
 *fill*         0x60000602        0x2 
 .rodata.cst16  0x60000604       0x10 D:/Skyworks/DTS/DTSX_VX_INT/SM4G_DTSVX_RT_CH_SWAP/SM4G_HIFI5Core0/bin/HiFi_220715_v3p_HiFi0/Debug/source/kernel/target/hifi5/vmem.o
 .rodata.str1.1
                0x60000614       0x32 C:/usr/xtensa/XtDevTools/install/builds/RI-2022.10-win32/HiFi_220715_v3p/xtensa-elf/lib/\libc.a(reent_bss.o)
                                          0x1 (size before relaxing)
 *(.gnu.linkonce.r.*)
 *(.rodata1)
                0x60000614                __XT_EXCEPTION_TABLE__ = ABSOLUTE (.)
 *(.xt_except_table)
 *(.gcc_except_table)
 *(.gnu.linkonce.e.*)
 *(.gnu.version_r)
                [!provide]                        PROVIDE (__eh_frame_start = .)
 *(.eh_frame)
 .eh_frame      0x60000614        0x0 C:/usr/xtensa/XtDevTools/install/builds/RI-2022.10-win32/HiFi_220715_v3p/xtensa-elf/lib/xcc/crtbegin.o
 .eh_frame      0x60000614        0x4 C:/usr/xtensa/XtDevTools/install/builds/RI-2022.10-win32/HiFi_220715_v3p/xtensa-elf/lib/xcc/crtend.o
                [!provide]                        PROVIDE (__eh_frame_end = .)
 *crtbegin.o(.ctors)
 .ctors         0x60000618        0x4 C:/usr/xtensa/XtDevTools/install/builds/RI-2022.10-win32/HiFi_220715_v3p/xtensa-elf/lib/xcc/crtbegin.o
 *(EXCLUDE_FILE(*crtend.o) .ctors)
 *(SORT_BY_NAME(.ctors.*))
 *(.ctors)
 .ctors         0x6000061c        0x4 C:/usr/xtensa/XtDevTools/install/builds/RI-2022.10-win32/HiFi_220715_v3p/xtensa-elf/lib/xcc/crtend.o
 *crtbegin.o(.dtors)
 .dtors         0x60000620        0x4 C:/usr/xtensa/XtDevTools/install/builds/RI-2022.10-win32/HiFi_220715_v3p/xtensa-elf/lib/xcc/crtbegin.o
 *(EXCLUDE_FILE(*crtend.o) .dtors)
 *(SORT_BY_NAME(.dtors.*))
 *(.dtors)
 .dtors         0x60000624        0x4 C:/usr/xtensa/XtDevTools/install/builds/RI-2022.10-win32/HiFi_220715_v3p/xtensa-elf/lib/xcc/crtend.o
                0x60000628                __XT_EXCEPTION_DESCS__ = ABSOLUTE (.)
 *(.xt_except_desc)
 *(.gnu.linkonce.h.*)
                0x60000628                __XT_EXCEPTION_DESCS_END__ = ABSOLUTE (.)
 *(.xt_except_desc_end)
 *(.dynamic)
 *(.gnu.version_d)
                0x60000648                . = ALIGN (0x4)
                0x60000628                _bss_table_start = ABSOLUTE (.)
                0x60000628        0x4 LONG 0x60005ab0 _bss_start
                0x6000062c        0x4 LONG 0x60006560 _bss_end
                0x60000630        0x4 LONG 0x80343000 _sramuc_bss_start
                0x60000634        0x4 LONG 0x80343000 _sramuc_bss_end
                0x60000638                _bss_table_end = ABSOLUTE (.)
                0x60000638                . = ALIGN (0x4)
                0x60000638                _rodata_end = ABSOLUTE (.)

.sram.text      0x60000638        0x0
                0x60000638                _sram_text_start = ABSOLUTE (.)
 *(.sram.literal .sram.text)
                0x60000638                . = ALIGN (0x4)
                0x60000638                _sram_text_end = ABSOLUTE (.)

.text           0x60000640     0x4e1c
                0x60000640                _stext = .
                0x60000640                _text_start = ABSOLUTE (.)
 *(.entry.text)
 *(.init.literal)
 .init.literal  0x60000640        0x4 C:/usr/xtensa/XtDevTools/install/builds/RI-2022.10-win32/HiFi_220715_v3p/xtensa-elf/lib/xcc/crtbegin.o
 .init.literal  0x60000644        0x4 C:/usr/xtensa/XtDevTools/install/builds/RI-2022.10-win32/HiFi_220715_v3p/xtensa-elf/lib/xcc/crtend.o
 *(.init)
 .literal       0x60000648       0x34 C:/usr/xtensa/XtDevTools/install/builds/RI-2022.10-win32/HiFi_220715_v3p/xtensa-elf/arch/lib/crt1-boards.o
                                         0x64 (size before relaxing)
 .literal       0x6000067c       0x14 C:/usr/xtensa/XtDevTools/install/builds/RI-2022.10-win32/HiFi_220715_v3p/xtensa-elf/lib/xcc/crtbegin.o
                                         0x20 (size before relaxing)
 .literal       0x60000690       0x1c D:/Skyworks/DTS/DTSX_VX_INT/SM4G_DTSVX_RT_CH_SWAP/SM4G_HIFI5Core0/bin/HiFi_220715_v3p_HiFi0/Debug/source/au_framework/src/c0_main.o
                                         0x40 (size before relaxing)
 .literal       0x600006ac        0x8 D:/Skyworks/DTS/DTSX_VX_INT/SM4G_DTSVX_RT_CH_SWAP/SM4G_HIFI5Core0/bin/HiFi_220715_v3p_HiFi0/Debug/source/kernel/target/hifi5/vmem.o
                                         0x10 (size before relaxing)
 .literal       0x600006b4       0x24 D:/Skyworks/DTS/DTSX_VX_INT/SM4G_DTSVX_RT_CH_SWAP/libdrv\libdrv_HIFI0.a(bufmgr.o)
                                         0x8c (size before relaxing)
 .literal       0x600006d8       0x44 D:/Skyworks/DTS/DTSX_VX_INT/SM4G_DTSVX_RT_CH_SWAP/libdrv\libdrv_HIFI0.a(clkrst.o)
                                        0x104 (size before relaxing)
 .literal       0x6000071c       0x1c D:/Skyworks/DTS/DTSX_VX_INT/SM4G_DTSVX_RT_CH_SWAP/libdrv\libdrv_HIFI0.a(i2srx.o)
                                         0x6c (size before relaxing)
 .literal       0x60000738        0xc D:/Skyworks/DTS/DTSX_VX_INT/SM4G_DTSVX_RT_CH_SWAP/libdrv\libdrv_HIFI0.a(i2stx.o)
                                         0x70 (size before relaxing)
 .literal       0x60000744       0xa8 D:/Skyworks/DTS/DTSX_VX_INT/SM4G_DTSVX_RT_CH_SWAP/libdrv\libdrv_HIFI0.a(int.o)
                                        0x1dc (size before relaxing)
 .literal       0x600007ec       0x14 D:/Skyworks/DTS/DTSX_VX_INT/SM4G_DTSVX_RT_CH_SWAP/libdrv\libdrv_HIFI0.a(mutex.o)
                                         0x88 (size before relaxing)
 .literal       0x60000800        0x4 D:/Skyworks/DTS/DTSX_VX_INT/SM4G_DTSVX_RT_CH_SWAP/libdrv\libdrv_HIFI0.a(padcfg.o)
                                         0x1c (size before relaxing)
 .literal       0x60000804       0x20 D:/Skyworks/DTS/DTSX_VX_INT/SM4G_DTSVX_RT_CH_SWAP/libdrv\libdrv_HIFI0.a(pinmux.o)
                                         0xe0 (size before relaxing)
 .literal       0x60000824       0x10 D:/Skyworks/DTS/DTSX_VX_INT/SM4G_DTSVX_RT_CH_SWAP/libdrv\libdrv_HIFI0.a(pll.o)
                                         0x7c (size before relaxing)
 .literal       0x60000834        0x4 D:/Skyworks/DTS/DTSX_VX_INT/SM4G_DTSVX_RT_CH_SWAP/libdrv\libdrv_HIFI0.a(frt.o)
                                         0x14 (size before relaxing)
 .literal.__clibrary_init
                0x60000838        0x8 C:/usr/xtensa/XtDevTools/install/builds/RI-2022.10-win32/HiFi_220715_v3p/xtensa-elf/lib/\libc.a(clibrary_init.o)
                                          0xc (size before relaxing)
 .literal.exit  0x60000840        0xc C:/usr/xtensa/XtDevTools/install/builds/RI-2022.10-win32/HiFi_220715_v3p/xtensa-elf/lib/\libc.a(xtensa_exit.o)
                                         0x1c (size before relaxing)
 .literal._init_reent_bss
                0x6000084c        0xc C:/usr/xtensa/XtDevTools/install/builds/RI-2022.10-win32/HiFi_220715_v3p/xtensa-elf/lib/\libc.a(reent_bss.o)
 .literal       0x60000858        0x0 C:/usr/xtensa/XtDevTools/install/builds/RI-2022.10-win32/HiFi_220715_v3p/xtensa-elf/lib/\libc.a(xexit.o)
                                          0x4 (size before relaxing)
 .literal       0x60000858        0x8 C:/usr/xtensa/XtDevTools/install/builds/RI-2022.10-win32/HiFi_220715_v3p/xtensa-elf/arch/lib/\libhandlers-board.a(xtos-interrupt-enable.o)
 .literal       0x60000860        0x0 C:/usr/xtensa/XtDevTools/install/builds/RI-2022.10-win32/HiFi_220715_v3p/xtensa-elf/arch/lib/\libhandlers-board.a(xtos-interrupt-disable.o)
                                          0x8 (size before relaxing)
 .literal       0x60000860        0xc C:/usr/xtensa/XtDevTools/install/builds/RI-2022.10-win32/HiFi_220715_v3p/xtensa-elf/arch/lib/\libhandlers-board.a(xtos-set-inthandler.o)
 .literal       0x6000086c        0x0 C:/usr/xtensa/XtDevTools/install/builds/RI-2022.10-win32/HiFi_220715_v3p/xtensa-elf/arch/lib/\libhandlers-board.a(exit.o)
                                          0x4 (size before relaxing)
 .literal       0x6000086c        0x4 C:/usr/xtensa/XtDevTools/install/builds/RI-2022.10-win32/HiFi_220715_v3p/xtensa-elf/arch/lib/\libhandlers-board.a(user-vector.o)
 .literal       0x60000870       0x10 C:/usr/xtensa/XtDevTools/install/builds/RI-2022.10-win32/HiFi_220715_v3p/xtensa-elf/arch/lib/\libhandlers-board.a(int-lowpri-dispatcher.o)
                                         0x2c (size before relaxing)
 .literal       0x60000880       0x10 C:/usr/xtensa/XtDevTools/install/builds/RI-2022.10-win32/HiFi_220715_v3p/xtensa-elf/arch/lib/\libhandlers-board.a(int-handler-level2.o)
                                         0x1c (size before relaxing)
 .literal       0x60000890        0x4 C:/usr/xtensa/XtDevTools/install/builds/RI-2022.10-win32/HiFi_220715_v3p/xtensa-elf/arch/lib/\libhandlers-board.a(exc-syscall-handler.o)
                                          0x8 (size before relaxing)
 .literal.MemErrorHandler
                0x60000894       0x14 C:/usr/xtensa/XtDevTools/install/builds/RI-2022.10-win32/HiFi_220715_v3p/xtensa-elf/arch/lib/\libhandlers-board.a(memerror-vector-S--handler-.o)
                                         0x30 (size before relaxing)
 .literal       0x600008a8        0x4 C:/usr/xtensa/XtDevTools/install/builds/RI-2022.10-win32/HiFi_220715_v3p/xtensa-elf/arch/lib/\libhal.a(cache_asm--set_cache_prefetch_long.o)
 .literal       0x600008ac        0x4 C:/usr/xtensa/XtDevTools/install/builds/RI-2022.10-win32/HiFi_220715_v3p/xtensa-elf/lib/xcc/crtend.o
 .fini.literal  0x600008b0        0x4 C:/usr/xtensa/XtDevTools/install/builds/RI-2022.10-win32/HiFi_220715_v3p/xtensa-elf/lib/xcc/crtbegin.o
 .init          0x600008b4        0x3 C:/usr/xtensa/XtDevTools/install/builds/RI-2022.10-win32/HiFi_220715_v3p/xtensa-elf/lib/xcc/crti.o
                0x600008b4                _init
 .init          0x600008b7        0x8 C:/usr/xtensa/XtDevTools/install/builds/RI-2022.10-win32/HiFi_220715_v3p/xtensa-elf/lib/xcc/crtbegin.o
 .init          0x600008bf        0x8 C:/usr/xtensa/XtDevTools/install/builds/RI-2022.10-win32/HiFi_220715_v3p/xtensa-elf/lib/xcc/crtend.o
 .init          0x600008c7        0x2 C:/usr/xtensa/XtDevTools/install/builds/RI-2022.10-win32/HiFi_220715_v3p/xtensa-elf/lib/xcc/crtn.o
 *(.literal.sort.* SORT_BY_NAME(.text.sort.*))
 *(.literal.keepsort.* SORT_BY_NAME(.text.keepsort.*) .literal.keep.* .text.keep.* .literal.*personality* .text.*personality*)
 *(.literal .text .literal.* .text.* .stub .gnu.warning .gnu.linkonce.literal.* .gnu.linkonce.t.*.literal .gnu.linkonce.t.*)
 *fill*         0x600008c9        0x7 
 .text          0x600008d0       0xc4 C:/usr/xtensa/XtDevTools/install/builds/RI-2022.10-win32/HiFi_220715_v3p/xtensa-elf/arch/lib/crt1-boards.o
                                         0xcd (size before relaxing)
                0x600008d0                _start
 *fill*         0x60000994        0x0 
 .text          0x60000994       0x4e C:/usr/xtensa/XtDevTools/install/builds/RI-2022.10-win32/HiFi_220715_v3p/xtensa-elf/lib/xcc/crtbegin.o
 *fill*         0x600009e2        0xe 
 .text          0x600009f0      0x26e D:/Skyworks/DTS/DTSX_VX_INT/SM4G_DTSVX_RT_CH_SWAP/SM4G_HIFI5Core0/bin/HiFi_220715_v3p_HiFi0/Debug/source/au_framework/src/c0_main.o
                0x600009f0                main
 *fill*         0x60000c5e        0x2 
 .text          0x60000c60       0x7b D:/Skyworks/DTS/DTSX_VX_INT/SM4G_DTSVX_RT_CH_SWAP/SM4G_HIFI5Core0/bin/HiFi_220715_v3p_HiFi0/Debug/source/kernel/target/hifi5/vmem.o
                0x60000c60                drv_vmem_VirtualtoPhysicalADD
                0x60000ca0                drv_vmem_PhysicaltoVirtualADD
 *fill*         0x60000cdb        0x5 
 .text          0x60000ce0      0x48c D:/Skyworks/DTS/DTSX_VX_INT/SM4G_DTSVX_RT_CH_SWAP/libdrv\libdrv_HIFI0.a(bufmgr.o)
                0x60000ce0                drv_bufmgr_init
                0x60000e18                drv_bufmgr_init_secondary
                0x60000e74                drv_bufmgr_RegisterCallback
                0x60000e8c                drv_bufmgr_DeregisterCallback
                0x60000ea4                drv_bufmgr_ChannelDisable
                0x60000ef4                drv_bufmgr_TxSubmitDualCircBuff
                0x60001030                drv_bufmgr_RxSubmitDualCircBuff
 .text          0x6000116c      0x8b5 D:/Skyworks/DTS/DTSX_VX_INT/SM4G_DTSVX_RT_CH_SWAP/libdrv\libdrv_HIFI0.a(clkrst.o)
                0x6000116c                drv_clkrst_config
                0x60001174                drv_clkrst_i2srxclkenable
                0x600011ec                drv_clkrst_i2stxclkenable
                0x600012b4                drv_clkrst_config2
                0x60001304                drv_hpdiv_config
                0x60001510                drv_hpdiv_config_intmclk
                0x6000171c                drv_dfs_config
                0x60001858                drv_evctr0_Enable
                0x600018b0                drv_evctr0_Enable2
                0x60001908                drv_evctr0_ResultValid
                0x6000191c                drv_evctr0_ClearValid
                0x60001938                drv_evctr0_ReadResult
                0x6000194c                drv_clkrst_GenerateIntBclk
                0x600019c0                drv_clkrst_SwitchToIntBclk
                0x600019f4                drv_clkrst_SwitchToExtBclk
 *fill*         0x60001a21        0xf 
 .text          0x60001a30      0x4c9 D:/Skyworks/DTS/DTSX_VX_INT/SM4G_DTSVX_RT_CH_SWAP/libdrv\libdrv_HIFI0.a(i2srx.o)
                0x60001a30                drv_i2srx_Open
                0x60001b88                drv_i2srx_Close
                0x60001c2c                drv_i2srx_RegisterCallback
                0x60001c50                drv_i2srx_Enable
                0x60001c74                drv_i2srx_SetFormat
                0x60001e14                drv_i2srx_SubmitDualCircBuff
                0x60001e98                drv_i2srx_StopDMA
                0x60001eac                drv_i2srx_ReadDMAStat
 *fill*         0x60001ef9        0x7 
 .text          0x60001f00      0x4d6 D:/Skyworks/DTS/DTSX_VX_INT/SM4G_DTSVX_RT_CH_SWAP/libdrv\libdrv_HIFI0.a(i2stx.o)
                0x60001f00                drv_i2stx_Open
                0x60002040                drv_i2stx_Close
                0x600020e8                drv_i2stx_RegisterCallback
                0x6000210c                drv_i2stx_Enable
                0x60002130                drv_i2stx_SetFormat
                0x600022d0                drv_i2stx_SubmitDualCircBuff
                0x6000236c                drv_i2stx_StopDMA
                0x60002380                drv_i2stx_ReadDMAStat
 *fill*         0x600023d6        0x2 
 .text          0x600023d8      0x907 D:/Skyworks/DTS/DTSX_VX_INT/SM4G_DTSVX_RT_CH_SWAP/libdrv\libdrv_HIFI0.a(int.o)
                                        0x987 (size before relaxing)
                0x600023d8                drv_irq_proc_init
                0x600025cc                drv_irq_handler_0
                0x600025d4                drv_irq_handler_1
                0x600025dc                drv_irq_handler_2
                0x600025fc                drv_irq_handler_3
                0x60002604                drv_irq_handler_4
                0x60002674                drv_irq_handler_5
                0x6000267c                drv_irq_handler_6
                0x600026fc                drv_irq_handler_7
                0x60002780                drv_irq_handler_8
                0x60002788                drv_irq_handler_9
                0x60002790                drv_irq_handler_10
                0x60002798                drv_irq_handler_11
                0x600027a0                drv_irq_handler_12
                0x600027a8                drv_irq_handler_13
                0x600027b0                drv_irq_handler_14
                0x600027b8                drv_irq_handler_15
                0x600027c0                drv_irq_handler_16
                0x600027c8                drv_irq_handler_17
                0x600027d0                drv_irq_handler_18
                0x600027d8                drv_irq_handler_19
                0x60002854                drv_irq_handler_20
                0x6000285c                drv_irq_handler_21
                0x60002864                drv_irq_handler_22
                0x600028f8                drv_irq_handler_23
                0x60002900                drv_irq_handler_24
                0x60002908                drv_irq_handler_25
                0x60002910                drv_irq_handler_26
                0x60002980                drv_irq_handler_27
                0x60002988                drv_irq_handler_28
                0x60002990                drv_irq_handler_29
                0x60002998                drv_irq_handler_30
                0x600029a0                drv_irq_handler_31
                0x600029a8                drv_irq_proc_enable
                0x600029b4                drv_irq_proc_disable
                0x600029c0                drv_irq_proc_clear
                0x600029d4                drv_irq_proc_set
                0x600029e8                drv_irq_src_is_valid
                0x60002a34                drv_irq_init
                0x60002a58                drv_irq_dispatch
                0x60002a80                drv_irq_enable
                0x60002ad8                drv_irq_disable
                0x60002b3c                drv_irq_disable_all
                0x60002b70                drv_irq_clear
                0x60002c18                drv_irq_set
                0x60002cc0                drv_irq_register
 *fill*         0x60002cdf        0x1 
 .text          0x60002ce0      0x3a6 D:/Skyworks/DTS/DTSX_VX_INT/SM4G_DTSVX_RT_CH_SWAP/libdrv\libdrv_HIFI0.a(mutex.o)
                                        0x3be (size before relaxing)
                0x60002ce0                drv_mutex_MsgRepInit
                0x60002cf8                drv_mutex_MsgRepCleanShMem
                0x60002d20                drv_mutex_MsgRepIntEnable
                0x60002ebc                drv_mutex_RegisterMsgRepCallback
                0x60002ed4                drv_mutex_SendMsg
                0x60002f14                drv_mutex_SendRep
                0x60002f8c                drv_mutex_SendMsgInt
                0x60002fb8                drv_mutex_SendRepInt
                0x60003024                drv_mutex_SYNCSet
                0x6000303c                drv_mutex_SYNCClr
                0x60003054                drv_mutex_SYNCWrite
                0x6000306c                drv_mutex_SYNCRead
 *fill*         0x60003086        0x2 
 .text          0x60003088      0x2c1 D:/Skyworks/DTS/DTSX_VX_INT/SM4G_DTSVX_RT_CH_SWAP/libdrv\libdrv_HIFI0.a(padcfg.o)
                0x60003088                drv_padcfg_config
                0x60003168                drv_padcfg_config_bt_slave
                0x60003268                drv_padcfg_MCLKOutEnable
                0x60003284                drv_padcfg_IFSEN
                0x600032a8                drv_padcfg_OFSEN
                0x600032cc                drv_padcfg_IFSEN_bt
                0x600032f0                drv_padcfg_InOutEnable
 *fill*         0x60003349        0x3 
 .text          0x6000334c      0xf38 D:/Skyworks/DTS/DTSX_VX_INT/SM4G_DTSVX_RT_CH_SWAP/libdrv\libdrv_HIFI0.a(pinmux.o)
                                        0xf4c (size before relaxing)
                0x6000334c                drv_pinmux_config
                0x600035dc                drv_pinmux_config2
                0x600038b4                drv_pinmux_config_bt_slave
                0x60003ad4                drv_pinmux_config_adc
                0x60003d00                drv_pinmux_iclkconnect
                0x60003d94                drv_pinmux_iclkconnect_bt
                0x60003dc4                drv_pinmux_oclkconnect
                0x60003e48                drv_pinmux_ifsconnect
                0x60003edc                drv_pinmux_ifsconnect_bt
                0x60003f0c                drv_pinmux_ofsconnect
                0x60003f80                drv_pinmux_ifslevel
                0x60003f94                drv_pinmux_ofslevel
                0x60003fa8                drv_pinmux_EnableIFSInt
                0x6000400c                drv_pinmux_EnableIFSInt_bt
                0x60004058                drv_pinmux_DisableIFSInt
                0x60004064                drv_pinmux_EnableOFSInt
                0x600040d0                drv_pinmux_DisableOFSInt
                0x600040dc                drv_pinmux_SPIFlashCfg
                0x600041ac                drv_pinmux_XIPFlashCfg
 *fill*         0x60004284        0xc 
 .text          0x60004290      0x87d D:/Skyworks/DTS/DTSX_VX_INT/SM4G_DTSVX_RT_CH_SWAP/libdrv\libdrv_HIFI0.a(pll.o)
                0x60004290                drv_pll_config
                0x600043f4                drv_pll_config2
                0x60004558                drv_pll_config3
                0x600046bc                drv_pll_config4
                0x60004820                drv_pll_config5
                0x60004984                drv_pll_config6
                0x60004ae8                drv_pll_CPUClockSel
 *fill*         0x60004b0d        0x3 
 .text          0x60004b10       0x82 D:/Skyworks/DTS/DTSX_VX_INT/SM4G_DTSVX_RT_CH_SWAP/libdrv\libdrv_HIFI0.a(frt.o)
                0x60004b10                drv_frt_Init
                0x60004b40                drv_frt_Start
                0x60004b54                drv_frt_Pause
                0x60004b68                drv_frt_Clear
                0x60004b7c                drv_frt_Read
 *fill*         0x60004b92        0x2 
 .text.__clibrary_init
                0x60004b94       0x1b C:/usr/xtensa/XtDevTools/install/builds/RI-2022.10-win32/HiFi_220715_v3p/xtensa-elf/lib/\libc.a(clibrary_init.o)
                                         0x1e (size before relaxing)
                0x60004b94                __clibrary_init
 *fill*         0x60004baf        0x1 
 .text.exit     0x60004bb0       0x77 C:/usr/xtensa/XtDevTools/install/builds/RI-2022.10-win32/HiFi_220715_v3p/xtensa-elf/lib/\libc.a(xtensa_exit.o)
                0x60004bb0                exit
 *fill*         0x60004c27        0x1 
 .text._init_reent_bss
                0x60004c28       0x18 C:/usr/xtensa/XtDevTools/install/builds/RI-2022.10-win32/HiFi_220715_v3p/xtensa-elf/lib/\libc.a(reent_bss.o)
                0x60004c28                _init_reent_bss
 .text          0x60004c40        0x8 C:/usr/xtensa/XtDevTools/install/builds/RI-2022.10-win32/HiFi_220715_v3p/xtensa-elf/lib/\libc.a(xexit.o)
                                          0xc (size before relaxing)
                0x60004c40                _Exit
 .text          0x60004c48       0x3a C:/usr/xtensa/XtDevTools/install/builds/RI-2022.10-win32/HiFi_220715_v3p/xtensa-elf/arch/lib/\libhandlers-board.a(xtos-interrupt-enable.o)
                0x60004c48                xtos_interrupt_enable
 *fill*         0x60004c82        0x2 
 .text          0x60004c84       0x3a C:/usr/xtensa/XtDevTools/install/builds/RI-2022.10-win32/HiFi_220715_v3p/xtensa-elf/arch/lib/\libhandlers-board.a(xtos-interrupt-disable.o)
                0x60004c84                xtos_interrupt_disable
 *fill*         0x60004cbe        0x2 
 .text          0x60004cc0       0x52 C:/usr/xtensa/XtDevTools/install/builds/RI-2022.10-win32/HiFi_220715_v3p/xtensa-elf/arch/lib/\libhandlers-board.a(xtos-set-inthandler.o)
                0x60004cc0                xtos_set_interrupt_handler
 *fill*         0x60004d12        0x2 
 .text          0x60004d14       0x1d C:/usr/xtensa/XtDevTools/install/builds/RI-2022.10-win32/HiFi_220715_v3p/xtensa-elf/arch/lib/\libhandlers-board.a(exit.o)
                                         0x20 (size before relaxing)
                0x60004d14                _exit
 *fill*         0x60004d31        0x3 
 .text          0x60004d34       0x12 C:/usr/xtensa/XtDevTools/install/builds/RI-2022.10-win32/HiFi_220715_v3p/xtensa-elf/arch/lib/\libhandlers-board.a(user-vector.o)
                0x60004d34                _UserExceptionFromVector
 *fill*         0x60004d46        0x2 
 .text          0x60004d48       0xfc C:/usr/xtensa/XtDevTools/install/builds/RI-2022.10-win32/HiFi_220715_v3p/xtensa-elf/arch/lib/\libhandlers-board.a(int-lowpri-dispatcher.o)
                0x60004d48                _xtos_l1int_handler
                0x60004d66                _LevelOneInterrupt
 .text          0x60004e44      0x126 C:/usr/xtensa/XtDevTools/install/builds/RI-2022.10-win32/HiFi_220715_v3p/xtensa-elf/arch/lib/\libhandlers-board.a(int-handler-level2.o)
                0x60004e44                _Level2FromVector
 *fill*         0x60004f6a        0x2 
 .text          0x60004f6c       0x6f C:/usr/xtensa/XtDevTools/install/builds/RI-2022.10-win32/HiFi_220715_v3p/xtensa-elf/arch/lib/\libhandlers-board.a(exc-syscall-handler.o)
                0x60004f6c                _xtos_syscall_handler
                0x60004fab                _SyscallException
 *fill*         0x60004fdb        0x1 
 .text.MemErrorHandler
                0x60004fdc      0x141 C:/usr/xtensa/XtDevTools/install/builds/RI-2022.10-win32/HiFi_220715_v3p/xtensa-elf/arch/lib/\libhandlers-board.a(memerror-vector-S--handler-.o)
                0x60004fdc                _MemErrorHandler
 *fill*         0x6000511d        0x3 
 .text          0x60005120       0x34 C:/usr/xtensa/XtDevTools/install/builds/RI-2022.10-win32/HiFi_220715_v3p/xtensa-elf/arch/lib/\libhal.a(cache_asm--set_cache_prefetch_long.o)
                0x60005120                xthal_set_cache_prefetch_long
 .text          0x60005154       0x22 C:/usr/xtensa/XtDevTools/install/builds/RI-2022.10-win32/HiFi_220715_v3p/xtensa-elf/lib/xcc/crtend.o
 *fill*         0x60005176        0x0 
 *fill*         0x60005176        0x0 
 .text          0x60005176        0x0 C:/usr/xtensa/XtDevTools/install/builds/RI-2022.10-win32/HiFi_220715_v3p/xtensa-elf/lib/xcc/crti.o
 *fill*         0x60005176        0x0 
 .text          0x60005176        0x0 C:/usr/xtensa/XtDevTools/install/builds/RI-2022.10-win32/HiFi_220715_v3p/xtensa-elf/arch/lib/_sharedvectors.o
 .text          0x60005176        0x0 C:/usr/xtensa/XtDevTools/install/builds/RI-2022.10-win32/HiFi_220715_v3p/xtensa-elf/arch/lib/_vectors.o
 .text          0x60005176        0x0 D:/Skyworks/DTS/DTSX_VX_INT/SM4G_DTSVX_RT_CH_SWAP/SM4G_HIFI5Core0/bin/HiFi_220715_v3p_HiFi0/Debug/source/au_framework/src/c0_audiobufferhandle.o
 .text          0x60005176        0x0 D:/Skyworks/DTS/DTSX_VX_INT/SM4G_DTSVX_RT_CH_SWAP/SM4G_HIFI5Core0/bin/HiFi_220715_v3p_HiFi0/Debug/source/au_framework/src/c0_audiopostprocess.o
 .text          0x60005176        0x0 D:/Skyworks/DTS/DTSX_VX_INT/SM4G_DTSVX_RT_CH_SWAP/SM4G_HIFI5Core0/bin/HiFi_220715_v3p_HiFi0/Debug/source/au_framework/src/c0_audioprocess.o
 *fill*         0x60005176        0x0 
 .text          0x60005176        0x0 D:/Skyworks/DTS/DTSX_VX_INT/SM4G_DTSVX_RT_CH_SWAP/SM4G_HIFI5Core0/bin/HiFi_220715_v3p_HiFi0/Debug/source/au_framework/src/isr_handler.o
 .text          0x60005176        0x0 D:/Skyworks/DTS/DTSX_VX_INT/SM4G_DTSVX_RT_CH_SWAP/SM4G_HIFI5Core0/bin/HiFi_220715_v3p_HiFi0/Debug/source/au_framework/src/isr_receive.o
 .text          0x60005176        0x0 D:/Skyworks/DTS/DTSX_VX_INT/SM4G_DTSVX_RT_CH_SWAP/SM4G_HIFI5Core0/bin/HiFi_220715_v3p_HiFi0/Debug/source/au_framework/src/isr_transmit.o
 .text          0x60005176        0x0 D:/Skyworks/DTS/DTSX_VX_INT/SM4G_DTSVX_RT_CH_SWAP/SM4G_HIFI5Core0/bin/HiFi_220715_v3p_HiFi0/Debug/source/customerpostprocess/c0_customerpostprocess.o
 .text          0x60005176        0x0 D:/Skyworks/DTS/DTSX_VX_INT/SM4G_DTSVX_RT_CH_SWAP/SM4G_HIFI5Core0/bin/HiFi_220715_v3p_HiFi0/Debug/source/kernel/target/hifi5/targetinit.o
 *fill*         0x60005176        0x0 
 *fill*         0x60005176        0x0 
 *fill*         0x60005176        0x0 
 *fill*         0x60005176        0x0 
 *fill*         0x60005176        0x0 
 *fill*         0x60005176        0x0 
 *fill*         0x60005176        0x0 
 *fill*         0x60005176        0x0 
 *fill*         0x60005176        0x0 
 *fill*         0x60005176        0x0 
 *fill*         0x60005176        0x0 
 *fill*         0x60005176        0x0 
 *fill*         0x60005176        0x0 
 *fill*         0x60005176        0x2 
 .literal       0x60005178        0x0 C:/usr/xtensa/XtDevTools/install/builds/RI-2022.10-win32/HiFi_220715_v3p/xtensa-elf/lib/\libc.a(memcmp.o)
 *fill*         0x60005178        0x8 
 .text          0x60005180       0x30 C:/usr/xtensa/XtDevTools/install/builds/RI-2022.10-win32/HiFi_220715_v3p/xtensa-elf/lib/\libc.a(memcmp.o)
                0x60005180                memcmp
 .text          0x600051b0        0x0 C:/usr/xtensa/XtDevTools/install/builds/RI-2022.10-win32/HiFi_220715_v3p/xtensa-elf/lib/\libc.a(clibrary_init.o)
 *fill*         0x600051b0        0x0 
 .text          0x600051b0        0x0 C:/usr/xtensa/XtDevTools/install/builds/RI-2022.10-win32/HiFi_220715_v3p/xtensa-elf/lib/\libc.a(xtensa_exit.o)
 *fill*         0x600051b0        0x0 
 .text          0x600051b0        0x0 C:/usr/xtensa/XtDevTools/install/builds/RI-2022.10-win32/HiFi_220715_v3p/xtensa-elf/lib/\libc.a(reent_bss.o)
 .literal       0x600051b0        0x0 C:/usr/xtensa/XtDevTools/install/builds/RI-2022.10-win32/HiFi_220715_v3p/xtensa-elf/lib/\libc.a(memcpy.o)
 *fill*         0x600051b0        0x0 
 .text          0x600051b0      0x163 C:/usr/xtensa/XtDevTools/install/builds/RI-2022.10-win32/HiFi_220715_v3p/xtensa-elf/lib/\libc.a(memcpy.o)
                0x60005200                memcpy
 *fill*         0x60005313        0x1 
 .literal       0x60005314        0x0 C:/usr/xtensa/XtDevTools/install/builds/RI-2022.10-win32/HiFi_220715_v3p/xtensa-elf/lib/\libc.a(memset.o)
 *fill*         0x60005314        0xc 
 .text          0x60005320       0x89 C:/usr/xtensa/XtDevTools/install/builds/RI-2022.10-win32/HiFi_220715_v3p/xtensa-elf/lib/\libc.a(memset.o)
                0x60005358                memset
 *fill*         0x600053a9        0x0 
 .text          0x600053a9        0x0 C:/usr/xtensa/XtDevTools/install/builds/RI-2022.10-win32/HiFi_220715_v3p/xtensa-elf/lib/\libc.a(environ.o)
 *fill*         0x600053a9        0x3 
 .text          0x600053ac        0x5 C:/usr/xtensa/XtDevTools/install/builds/RI-2022.10-win32/HiFi_220715_v3p/xtensa-elf/lib/\libgdbio.a(miniboard.o)
                0x600053ac                board_init
 .text          0x600053b1        0x0 C:/usr/xtensa/XtDevTools/install/builds/RI-2022.10-win32/HiFi_220715_v3p/xtensa-elf/arch/lib/\libhandler-reset.a(reset-vector.o)
 .text          0x600053b1        0x0 C:/usr/xtensa/XtDevTools/install/builds/RI-2022.10-win32/HiFi_220715_v3p/xtensa-elf/arch/lib/\libhandlers-board.a(debug-vector.o)
 .text          0x600053b1        0x0 C:/usr/xtensa/XtDevTools/install/builds/RI-2022.10-win32/HiFi_220715_v3p/xtensa-elf/arch/lib/\libhandlers-board.a(double-vector.o)
 .text          0x600053b1        0x0 C:/usr/xtensa/XtDevTools/install/builds/RI-2022.10-win32/HiFi_220715_v3p/xtensa-elf/arch/lib/\libhandlers-board.a(kernel-vector.o)
 .text          0x600053b1        0x0 C:/usr/xtensa/XtDevTools/install/builds/RI-2022.10-win32/HiFi_220715_v3p/xtensa-elf/arch/lib/\libhandlers-board.a(memctl_default.o)
 *fill*         0x600053b1        0x0 
 *fill*         0x600053b1        0x0 
 *fill*         0x600053b1        0x0 
 *fill*         0x600053b1        0x3 
 .text          0x600053b4        0x8 C:/usr/xtensa/XtDevTools/install/builds/RI-2022.10-win32/HiFi_220715_v3p/xtensa-elf/arch/lib/\libhandlers-board.a(interrupt-table.o)
                0x600053b4                xtos_unhandled_interrupt
 .text          0x600053bc        0x0 C:/usr/xtensa/XtDevTools/install/builds/RI-2022.10-win32/HiFi_220715_v3p/xtensa-elf/arch/lib/\libhandlers-board.a(memerror-vector-S--vector-.o)
 *fill*         0x600053bc        0x0 
 .text          0x600053bc        0x0 C:/usr/xtensa/XtDevTools/install/builds/RI-2022.10-win32/HiFi_220715_v3p/xtensa-elf/arch/lib/\libhandlers-board.a(window-vectors.o)
 .text          0x600053bc        0x0 C:/usr/xtensa/XtDevTools/install/builds/RI-2022.10-win32/HiFi_220715_v3p/xtensa-elf/arch/lib/\libhandlers-board.a(int-vector-level2.o)
 *fill*         0x600053bc        0x0 
 .text          0x600053bc        0xd C:/usr/xtensa/XtDevTools/install/builds/RI-2022.10-win32/HiFi_220715_v3p/xtensa-elf/arch/lib/\libhandlers-board.a(exc-unhandled.o)
                0x600053bc                xtos_cause3_handler
                0x600053bc                xtos_unhandled_exception
 *fill*         0x600053c9        0x0 
 *fill*         0x600053c9        0x0 
 .text          0x600053c9        0x0 C:/usr/xtensa/XtDevTools/install/builds/RI-2022.10-win32/HiFi_220715_v3p/xtensa-elf/arch/lib/\libhandlers-board.a(memerror-vector-S--handler-.o)
 *fill*         0x600053c9        0x3 
 .text          0x600053cc       0x18 C:/usr/xtensa/XtDevTools/install/builds/RI-2022.10-win32/HiFi_220715_v3p/xtensa-elf/arch/lib/\libhandlers-board.a(exc-return.o)
                0x600053cc                _xtos_return_from_exc
 .literal       0x600053e4        0x0 C:/usr/xtensa/XtDevTools/install/builds/RI-2022.10-win32/HiFi_220715_v3p/xtensa-elf/arch/lib/\libhal.a(cache_asm--dcache_all_writeback.o)
 *fill*         0x600053e4        0xc 
 .text          0x600053f0       0x17 C:/usr/xtensa/XtDevTools/install/builds/RI-2022.10-win32/HiFi_220715_v3p/xtensa-elf/arch/lib/\libhal.a(cache_asm--dcache_all_writeback.o)
                0x600053f0                xthal_dcache_all_writeback
 *fill*         0x60005407        0x1 
 .literal       0x60005408        0x0 C:/usr/xtensa/XtDevTools/install/builds/RI-2022.10-win32/HiFi_220715_v3p/xtensa-elf/arch/lib/\libhal.a(cache_asm--dcache_region_writeback.o)
 *fill*         0x60005408        0x8 
 .text          0x60005410       0x1c C:/usr/xtensa/XtDevTools/install/builds/RI-2022.10-win32/HiFi_220715_v3p/xtensa-elf/arch/lib/\libhal.a(cache_asm--dcache_region_writeback.o)
                0x60005410                xthal_dcache_region_writeback
 .literal       0x6000542c        0x0 C:/usr/xtensa/XtDevTools/install/builds/RI-2022.10-win32/HiFi_220715_v3p/xtensa-elf/arch/lib/\libhal.a(cache_asm--dcache_region_writeback_inv.o)
 *fill*         0x6000542c        0x4 
 .text          0x60005430       0x1c C:/usr/xtensa/XtDevTools/install/builds/RI-2022.10-win32/HiFi_220715_v3p/xtensa-elf/arch/lib/\libhal.a(cache_asm--dcache_region_writeback_inv.o)
                0x60005430                xthal_dcache_region_writeback_inv
 .text          0x6000544c        0x0 C:/usr/xtensa/XtDevTools/install/builds/RI-2022.10-win32/HiFi_220715_v3p/xtensa-elf/arch/lib/\libhal.a(cache_asm--hw_configid0.o)
 .text          0x6000544c        0x0 C:/usr/xtensa/XtDevTools/install/builds/RI-2022.10-win32/HiFi_220715_v3p/xtensa-elf/arch/lib/\libhal.a(cache_asm--hw_configid1.o)
 .text          0x6000544c        0x0 C:/usr/xtensa/XtDevTools/install/builds/RI-2022.10-win32/HiFi_220715_v3p/xtensa-elf/arch/lib/\libhal.a(cache_asm--release_major.o)
 .text          0x6000544c        0x0 C:/usr/xtensa/XtDevTools/install/builds/RI-2022.10-win32/HiFi_220715_v3p/xtensa-elf/arch/lib/\libhal.a(cache_asm--release_minor.o)
 .text          0x6000544c        0x0 C:/usr/xtensa/XtDevTools/install/builds/RI-2022.10-win32/HiFi_220715_v3p/xtensa-elf/arch/lib/\libhal.a(const--intlevel.o)
 .text          0x6000544c        0x0 C:/usr/xtensa/XtDevTools/install/builds/RI-2022.10-win32/HiFi_220715_v3p/xtensa-elf/lib/xcc/crtn.o
 *(.fini.literal)
 *fill*         0x6000544c        0x0 
 *(.fini)
 .fini          0x6000544c        0x3 C:/usr/xtensa/XtDevTools/install/builds/RI-2022.10-win32/HiFi_220715_v3p/xtensa-elf/lib/xcc/crti.o
                0x6000544c                _fini
 .fini          0x6000544f        0x8 C:/usr/xtensa/XtDevTools/install/builds/RI-2022.10-win32/HiFi_220715_v3p/xtensa-elf/lib/xcc/crtbegin.o
 .fini          0x60005457        0x2 C:/usr/xtensa/XtDevTools/install/builds/RI-2022.10-win32/HiFi_220715_v3p/xtensa-elf/lib/xcc/crtn.o
 *(.gnu.version)
                0x6000545c                . = ALIGN (0x4)
 *fill*         0x60005459        0x3 
                0x6000545c                _text_end = ABSOLUTE (.)
                0x6000545c                _etext = .

.ResetVector.literal
                0x6000545c        0x0
 .ResetVector.literal
                0x6000545c        0x0 C:/usr/xtensa/XtDevTools/install/builds/RI-2022.10-win32/HiFi_220715_v3p/xtensa-elf/arch/lib/\libhandler-reset.a(reset-vector.o)

.clib.text      0x6000545c        0x0
                0x6000545c                _clib_text_start = ABSOLUTE (.)
 *(.clib.literal .clib.text)
                0x6000545c                . = ALIGN (0x4)
                0x6000545c                _clib_text_end = ABSOLUTE (.)

.rtos.text      0x6000545c        0x0
                0x6000545c                _rtos_text_start = ABSOLUTE (.)
 *(.rtos.literal .rtos.text)
                0x6000545c                . = ALIGN (0x4)
                0x6000545c                _rtos_text_end = ABSOLUTE (.)

.clib.data      0x6000545c        0xc
                0x6000545c                _clib_data_start = ABSOLUTE (.)
 *(.clib.data)
 .clib.data     0x6000545c        0x0 C:/usr/xtensa/XtDevTools/install/builds/RI-2022.10-win32/HiFi_220715_v3p/xtensa-elf/lib/\libc.a(memcmp.o)
 .clib.data     0x6000545c        0x0 C:/usr/xtensa/XtDevTools/install/builds/RI-2022.10-win32/HiFi_220715_v3p/xtensa-elf/lib/\libc.a(clibrary_init.o)
 .clib.data     0x6000545c        0x8 C:/usr/xtensa/XtDevTools/install/builds/RI-2022.10-win32/HiFi_220715_v3p/xtensa-elf/lib/\libc.a(xtensa_exit.o)
                0x6000545c                _Nats
                0x60005460                _Atcount
 .clib.data     0x60005464        0x0 C:/usr/xtensa/XtDevTools/install/builds/RI-2022.10-win32/HiFi_220715_v3p/xtensa-elf/lib/\libc.a(reent_bss.o)
 .clib.data     0x60005464        0x0 C:/usr/xtensa/XtDevTools/install/builds/RI-2022.10-win32/HiFi_220715_v3p/xtensa-elf/lib/\libc.a(memcpy.o)
 .clib.data     0x60005464        0x0 C:/usr/xtensa/XtDevTools/install/builds/RI-2022.10-win32/HiFi_220715_v3p/xtensa-elf/lib/\libc.a(memset.o)
 .clib.data     0x60005464        0x0 C:/usr/xtensa/XtDevTools/install/builds/RI-2022.10-win32/HiFi_220715_v3p/xtensa-elf/lib/\libc.a(xexit.o)
 .clib.data     0x60005464        0x4 C:/usr/xtensa/XtDevTools/install/builds/RI-2022.10-win32/HiFi_220715_v3p/xtensa-elf/lib/\libc.a(environ.o)
                0x60005464                environ
                0x60005468                . = ALIGN (0x4)
                0x60005468                _clib_data_end = ABSOLUTE (.)

.clib.percpu.data
                0x60005468        0x0
                0x60005468                _clib_percpu_data_start = ABSOLUTE (.)
 *(.clib.percpu.data)
                0x60005468                . = ALIGN (0x4)
                0x60005468                _clib_percpu_data_end = ABSOLUTE (.)

.rtos.percpu.data
                0x60005468      0x314
                0x60005468                _rtos_percpu_data_start = ABSOLUTE (.)
 *(.rtos.percpu.data)
 .rtos.percpu.data
                0x60005468        0x4 C:/usr/xtensa/XtDevTools/install/builds/RI-2022.10-win32/HiFi_220715_v3p/xtensa-elf/arch/lib/\libhandler-reset.a(reset-vector.o)
 .rtos.percpu.data
                0x6000546c        0x0 C:/usr/xtensa/XtDevTools/install/builds/RI-2022.10-win32/HiFi_220715_v3p/xtensa-elf/arch/lib/\libhandlers-board.a(debug-vector.o)
 .rtos.percpu.data
                0x6000546c        0x0 C:/usr/xtensa/XtDevTools/install/builds/RI-2022.10-win32/HiFi_220715_v3p/xtensa-elf/arch/lib/\libhandlers-board.a(double-vector.o)
 .rtos.percpu.data
                0x6000546c        0x0 C:/usr/xtensa/XtDevTools/install/builds/RI-2022.10-win32/HiFi_220715_v3p/xtensa-elf/arch/lib/\libhandlers-board.a(kernel-vector.o)
 .rtos.percpu.data
                0x6000546c        0x0 C:/usr/xtensa/XtDevTools/install/builds/RI-2022.10-win32/HiFi_220715_v3p/xtensa-elf/arch/lib/\libhandlers-board.a(memctl_default.o)
 .rtos.percpu.data
                0x6000546c        0x0 C:/usr/xtensa/XtDevTools/install/builds/RI-2022.10-win32/HiFi_220715_v3p/xtensa-elf/arch/lib/\libhandlers-board.a(xtos-interrupt-enable.o)
 .rtos.percpu.data
                0x6000546c        0x0 C:/usr/xtensa/XtDevTools/install/builds/RI-2022.10-win32/HiFi_220715_v3p/xtensa-elf/arch/lib/\libhandlers-board.a(xtos-interrupt-disable.o)
 .rtos.percpu.data
                0x6000546c        0x0 C:/usr/xtensa/XtDevTools/install/builds/RI-2022.10-win32/HiFi_220715_v3p/xtensa-elf/arch/lib/\libhandlers-board.a(xtos-set-inthandler.o)
 .rtos.percpu.data
                0x6000546c        0x0 C:/usr/xtensa/XtDevTools/install/builds/RI-2022.10-win32/HiFi_220715_v3p/xtensa-elf/arch/lib/\libhandlers-board.a(exit.o)
 *fill*         0x6000546c        0x4 
 .rtos.percpu.data
                0x60005470      0x208 C:/usr/xtensa/XtDevTools/install/builds/RI-2022.10-win32/HiFi_220715_v3p/xtensa-elf/arch/lib/\libhandlers-board.a(interrupt-table.o)
                0x60005470                _xtos_intstruct
                0x60005470                xtos_enabled
                0x60005474                xtos_vpri_enabled
                0x60005478                xtos_interrupt_table
                0x60005578                xtos_interrupt_mask_table
 .rtos.percpu.data
                0x60005678        0x0 C:/usr/xtensa/XtDevTools/install/builds/RI-2022.10-win32/HiFi_220715_v3p/xtensa-elf/arch/lib/\libhandlers-board.a(memerror-vector-S--vector-.o)
 .rtos.percpu.data
                0x60005678      0x100 C:/usr/xtensa/XtDevTools/install/builds/RI-2022.10-win32/HiFi_220715_v3p/xtensa-elf/arch/lib/\libhandlers-board.a(user-vector.o)
                0x60005678                xtos_exc_handler_table
 .rtos.percpu.data
                0x60005778        0x0 C:/usr/xtensa/XtDevTools/install/builds/RI-2022.10-win32/HiFi_220715_v3p/xtensa-elf/arch/lib/\libhandlers-board.a(int-lowpri-dispatcher.o)
 .rtos.percpu.data
                0x60005778        0x0 C:/usr/xtensa/XtDevTools/install/builds/RI-2022.10-win32/HiFi_220715_v3p/xtensa-elf/arch/lib/\libhandlers-board.a(window-vectors.o)
 .rtos.percpu.data
                0x60005778        0x0 C:/usr/xtensa/XtDevTools/install/builds/RI-2022.10-win32/HiFi_220715_v3p/xtensa-elf/arch/lib/\libhandlers-board.a(int-vector-level2.o)
 .rtos.percpu.data
                0x60005778        0x4 C:/usr/xtensa/XtDevTools/install/builds/RI-2022.10-win32/HiFi_220715_v3p/xtensa-elf/arch/lib/\libhandlers-board.a(int-handler-level2.o)
                0x60005778                _Pri_2_HandlerAddress
 .rtos.percpu.data
                0x6000577c        0x0 C:/usr/xtensa/XtDevTools/install/builds/RI-2022.10-win32/HiFi_220715_v3p/xtensa-elf/arch/lib/\libhandlers-board.a(exc-unhandled.o)
 .rtos.percpu.data
                0x6000577c        0x0 C:/usr/xtensa/XtDevTools/install/builds/RI-2022.10-win32/HiFi_220715_v3p/xtensa-elf/arch/lib/\libhandlers-board.a(exc-syscall-handler.o)
 .rtos.percpu.data
                0x6000577c        0x0 C:/usr/xtensa/XtDevTools/install/builds/RI-2022.10-win32/HiFi_220715_v3p/xtensa-elf/arch/lib/\libhandlers-board.a(memerror-vector-S--handler-.o)
 .rtos.percpu.data
                0x6000577c        0x0 C:/usr/xtensa/XtDevTools/install/builds/RI-2022.10-win32/HiFi_220715_v3p/xtensa-elf/arch/lib/\libhandlers-board.a(exc-return.o)
                0x6000577c                . = ALIGN (0x4)
                0x6000577c                _rtos_percpu_data_end = ABSOLUTE (.)

.rtos.data      0x6000577c        0x0
                0x6000577c                _rtos_data_start = ABSOLUTE (.)
 *(.rtos.data)
 .rtos.data     0x6000577c        0x0 C:/usr/xtensa/XtDevTools/install/builds/RI-2022.10-win32/HiFi_220715_v3p/xtensa-elf/arch/lib/\libhal.a(cache_asm--dcache_all_writeback.o)
 .rtos.data     0x6000577c        0x0 C:/usr/xtensa/XtDevTools/install/builds/RI-2022.10-win32/HiFi_220715_v3p/xtensa-elf/arch/lib/\libhal.a(cache_asm--dcache_region_writeback.o)
 .rtos.data     0x6000577c        0x0 C:/usr/xtensa/XtDevTools/install/builds/RI-2022.10-win32/HiFi_220715_v3p/xtensa-elf/arch/lib/\libhal.a(cache_asm--dcache_region_writeback_inv.o)
 .rtos.data     0x6000577c        0x0 C:/usr/xtensa/XtDevTools/install/builds/RI-2022.10-win32/HiFi_220715_v3p/xtensa-elf/arch/lib/\libhal.a(cache_asm--hw_configid0.o)
 .rtos.data     0x6000577c        0x0 C:/usr/xtensa/XtDevTools/install/builds/RI-2022.10-win32/HiFi_220715_v3p/xtensa-elf/arch/lib/\libhal.a(cache_asm--hw_configid1.o)
 .rtos.data     0x6000577c        0x0 C:/usr/xtensa/XtDevTools/install/builds/RI-2022.10-win32/HiFi_220715_v3p/xtensa-elf/arch/lib/\libhal.a(cache_asm--release_major.o)
 .rtos.data     0x6000577c        0x0 C:/usr/xtensa/XtDevTools/install/builds/RI-2022.10-win32/HiFi_220715_v3p/xtensa-elf/arch/lib/\libhal.a(cache_asm--release_minor.o)
 .rtos.data     0x6000577c        0x0 C:/usr/xtensa/XtDevTools/install/builds/RI-2022.10-win32/HiFi_220715_v3p/xtensa-elf/arch/lib/\libhal.a(cache_asm--set_cache_prefetch_long.o)
 .rtos.data     0x6000577c        0x0 C:/usr/xtensa/XtDevTools/install/builds/RI-2022.10-win32/HiFi_220715_v3p/xtensa-elf/arch/lib/\libhal.a(const--intlevel.o)
                0x6000577c                . = ALIGN (0x4)
                0x6000577c                _rtos_data_end = ABSOLUTE (.)

.sram.data      0x6000577c        0x0
                0x6000577c                _sram_data_start = ABSOLUTE (.)
 *(.sram.data)
                0x6000577c                . = ALIGN (0x4)
                0x6000577c                _sram_data_end = ABSOLUTE (.)

.data           0x60005780      0x284
                0x60005780                _data_start = ABSOLUTE (.)
 *(.data)
 .data          0x60005780        0xc C:/usr/xtensa/XtDevTools/install/builds/RI-2022.10-win32/HiFi_220715_v3p/xtensa-elf/arch/lib/crt1-boards.o
                0x60005780                _start_argc
                0x60005784                _start_argv
                0x60005788                _start_envp
 .data          0x6000578c        0x0 C:/usr/xtensa/XtDevTools/install/builds/RI-2022.10-win32/HiFi_220715_v3p/xtensa-elf/lib/xcc/crti.o
 .data          0x6000578c       0x24 C:/usr/xtensa/XtDevTools/install/builds/RI-2022.10-win32/HiFi_220715_v3p/xtensa-elf/lib/xcc/crtbegin.o
                0x6000578c                __dso_handle
 .data          0x600057b0        0x0 C:/usr/xtensa/XtDevTools/install/builds/RI-2022.10-win32/HiFi_220715_v3p/xtensa-elf/arch/lib/_sharedvectors.o
 .data          0x600057b0        0x0 C:/usr/xtensa/XtDevTools/install/builds/RI-2022.10-win32/HiFi_220715_v3p/xtensa-elf/arch/lib/_vectors.o
 .data          0x600057b0        0x0 D:/Skyworks/DTS/DTSX_VX_INT/SM4G_DTSVX_RT_CH_SWAP/SM4G_HIFI5Core0/bin/HiFi_220715_v3p_HiFi0/Debug/source/au_framework/src/c0_audiobufferhandle.o
 .data          0x600057b0        0x0 D:/Skyworks/DTS/DTSX_VX_INT/SM4G_DTSVX_RT_CH_SWAP/SM4G_HIFI5Core0/bin/HiFi_220715_v3p_HiFi0/Debug/source/au_framework/src/c0_audiopostprocess.o
 .data          0x600057b0        0x0 D:/Skyworks/DTS/DTSX_VX_INT/SM4G_DTSVX_RT_CH_SWAP/SM4G_HIFI5Core0/bin/HiFi_220715_v3p_HiFi0/Debug/source/au_framework/src/c0_audioprocess.o
 .data          0x600057b0        0x0 D:/Skyworks/DTS/DTSX_VX_INT/SM4G_DTSVX_RT_CH_SWAP/SM4G_HIFI5Core0/bin/HiFi_220715_v3p_HiFi0/Debug/source/au_framework/src/c0_main.o
 .data          0x600057b0        0x0 D:/Skyworks/DTS/DTSX_VX_INT/SM4G_DTSVX_RT_CH_SWAP/SM4G_HIFI5Core0/bin/HiFi_220715_v3p_HiFi0/Debug/source/au_framework/src/isr_handler.o
 .data          0x600057b0        0x0 D:/Skyworks/DTS/DTSX_VX_INT/SM4G_DTSVX_RT_CH_SWAP/SM4G_HIFI5Core0/bin/HiFi_220715_v3p_HiFi0/Debug/source/au_framework/src/isr_receive.o
 .data          0x600057b0        0x0 D:/Skyworks/DTS/DTSX_VX_INT/SM4G_DTSVX_RT_CH_SWAP/SM4G_HIFI5Core0/bin/HiFi_220715_v3p_HiFi0/Debug/source/au_framework/src/isr_transmit.o
 .data          0x600057b0        0x0 D:/Skyworks/DTS/DTSX_VX_INT/SM4G_DTSVX_RT_CH_SWAP/SM4G_HIFI5Core0/bin/HiFi_220715_v3p_HiFi0/Debug/source/customerpostprocess/c0_customerpostprocess.o
 .data          0x600057b0        0x0 D:/Skyworks/DTS/DTSX_VX_INT/SM4G_DTSVX_RT_CH_SWAP/SM4G_HIFI5Core0/bin/HiFi_220715_v3p_HiFi0/Debug/source/kernel/target/hifi5/targetinit.o
 .data          0x600057b0       0xe0 D:/Skyworks/DTS/DTSX_VX_INT/SM4G_DTSVX_RT_CH_SWAP/SM4G_HIFI5Core0/bin/HiFi_220715_v3p_HiFi0/Debug/source/kernel/target/hifi5/vmem.o
                0x600057b0                g_VMEMTableHIFI0
                0x600057f0                g_VMEMTableHIFI1
                0x60005830                g_VMEMTableHIFI2
                0x60005860                g_VMEMTableMCU1
 .data          0x60005890        0x4 D:/Skyworks/DTS/DTSX_VX_INT/SM4G_DTSVX_RT_CH_SWAP/libdrv\libdrv_HIFI0.a(bufmgr.o)
                0x60005890                g_pBUFMGRTable
 .data          0x60005894        0x4 D:/Skyworks/DTS/DTSX_VX_INT/SM4G_DTSVX_RT_CH_SWAP/libdrv\libdrv_HIFI0.a(clkrst.o)
                0x60005894                g_pCLKRSTTable
 *fill*         0x60005898        0x8 
 .data          0x600058a0       0x90 D:/Skyworks/DTS/DTSX_VX_INT/SM4G_DTSVX_RT_CH_SWAP/libdrv\libdrv_HIFI0.a(i2srx.o)
                0x600058a0                g_I2SRXDevices
 .data          0x60005930       0x90 D:/Skyworks/DTS/DTSX_VX_INT/SM4G_DTSVX_RT_CH_SWAP/libdrv\libdrv_HIFI0.a(i2stx.o)
                0x60005930                g_I2STXDevices
 .data          0x600059c0       0x20 D:/Skyworks/DTS/DTSX_VX_INT/SM4G_DTSVX_RT_CH_SWAP/libdrv\libdrv_HIFI0.a(int.o)
                0x600059c0                g_pIRQHIFI1Regs
                0x600059c4                g_pIRQHIFI2Regs
                0x600059c8                g_pIRQMCU0Regs
                0x600059cc                g_pIRQMCU1Regs
                0x600059d0                g_pEVCTR0Table
                0x600059d4                g_pEVCTR1Table
                0x600059d8                g_pEVMGRRegs
                0x600059dc                g_pIRQHIFI0Regs
 .data          0x600059e0        0xc D:/Skyworks/DTS/DTSX_VX_INT/SM4G_DTSVX_RT_CH_SWAP/libdrv\libdrv_HIFI0.a(mutex.o)
                0x600059e0                g_MUTEXMsgRepInfo
 .data          0x600059ec        0x4 D:/Skyworks/DTS/DTSX_VX_INT/SM4G_DTSVX_RT_CH_SWAP/libdrv\libdrv_HIFI0.a(padcfg.o)
                0x600059ec                g_pPADCFGTable
 .data          0x600059f0        0x4 D:/Skyworks/DTS/DTSX_VX_INT/SM4G_DTSVX_RT_CH_SWAP/libdrv\libdrv_HIFI0.a(pinmux.o)
                0x600059f0                g_pPINMUXTable
 .data          0x600059f4        0xc D:/Skyworks/DTS/DTSX_VX_INT/SM4G_DTSVX_RT_CH_SWAP/libdrv\libdrv_HIFI0.a(pll.o)
                0x600059f4                g_pPLLRegs
                0x600059f8                g_pPLLDIGRegs
                0x600059fc                g_REFCLKRegs
 .data          0x60005a00        0x4 D:/Skyworks/DTS/DTSX_VX_INT/SM4G_DTSVX_RT_CH_SWAP/libdrv\libdrv_HIFI0.a(frt.o)
                0x60005a00                g_pFRTTable
 .data          0x60005a04        0x0 C:/usr/xtensa/XtDevTools/install/builds/RI-2022.10-win32/HiFi_220715_v3p/xtensa-elf/lib/\libgdbio.a(miniboard.o)
 .data          0x60005a04        0x0 C:/usr/xtensa/XtDevTools/install/builds/RI-2022.10-win32/HiFi_220715_v3p/xtensa-elf/lib/xcc/crtend.o
 .data          0x60005a04        0x0 C:/usr/xtensa/XtDevTools/install/builds/RI-2022.10-win32/HiFi_220715_v3p/xtensa-elf/lib/xcc/crtn.o
 *(SORT_BY_NAME(.data.sort.*))
 *(SORT_BY_NAME(.data.keepsort.*) .data.keep.*)
 *(.data.*)
 *(.gnu.linkonce.d.*)
 *(.gnu.linkonce.d.*personality*)
 *(.data1)
 *(.sdata)
 *(.sdata.*)
 *(.gnu.linkonce.s.*)
 *(.sdata2)
 *(.sdata2.*)
 *(.gnu.linkonce.s2.*)
 *(.jcr)
 *(__llvm_prf_cnts)
 *(__llvm_prf_data)
 *(__llvm_prf_vnds)
                0x60005a04                . = ALIGN (0x4)
                0x60005a04                _data_end = ABSOLUTE (.)

.Host.data      0x60005a10       0x96
 .Host.data     0x60005a10       0x7c D:/Skyworks/DTS/DTSX_VX_INT/SM4G_DTSVX_RT_CH_SWAP/SM4G_HIFI5Core0/bin/HiFi_220715_v3p_HiFi0/Debug/source/au_framework/src/c0_main.o
                0x60005a10                msg2
                0x60005a30                msg3
                0x60005a40                msg4
                0x60005a50                msg5
                0x60005a60                msg6
                0x60005a7c                status_flag
                0x60005a80                stream_change_flag
                0x60005a84                temp_status
                0x60005a88                pstatus
 .Host.data     0x60005a8c        0xe D:/Skyworks/DTS/DTSX_VX_INT/SM4G_DTSVX_RT_CH_SWAP/SM4G_HIFI5Core0/bin/HiFi_220715_v3p_HiFi0/Debug/source/au_framework/src/isr_handler.o
                0x60005a8c                MCU_Ready
                0x60005a90                pPDst_HIFI0_Command
                0x60005a94                pPDst_HIFI0_Status
                0x60005a98                bMCU1MsgRcvd
                0x60005a99                bMCU1RepRcvd
 *fill*         0x60005a9a        0x6 
 .Host.data     0x60005aa0        0x6 D:/Skyworks/DTS/DTSX_VX_INT/SM4G_DTSVX_RT_CH_SWAP/SM4G_HIFI5Core0/bin/HiFi_220715_v3p_HiFi0/Debug/source/kernel/target/hifi5/targetinit.o
                0x60005aa0                msg1

__llvm_prf_names
                0x60005aa8        0x0
                0x60005aa8                __llvm_prf_names_start = ABSOLUTE (.)
 *(__llvm_prf_names)
                0x60005aa8                . = ALIGN (0x4)
                0x60005aa8                __llvm_prf_names_end = ABSOLUTE (.)

.note.gnu.build-id
                0x60005aa8        0x0
                0x60005aa8                _note_gnu_build-id_start = ABSOLUTE (.)
 *(.note.gnu.build-id)
                0x60005aa8                . = ALIGN (0x4)
                0x60005aa8                _note_gnu_build-id_end = ABSOLUTE (.)

.bss            0x60005ab0      0xab0
                0x60005ab0                . = ALIGN (0x8)
                0x60005ab0                _bss_start = ABSOLUTE (.)
 *(.dynsbss)
 *(.sbss)
 *(.sbss.*)
 *(.gnu.linkonce.sb.*)
 *(.scommon)
 *(.sbss2)
 *(.sbss2.*)
 *(.gnu.linkonce.sb2.*)
 *(.dynbss)
 *(.bss)
 .bss           0x60005ab0        0x0 C:/usr/xtensa/XtDevTools/install/builds/RI-2022.10-win32/HiFi_220715_v3p/xtensa-elf/arch/lib/crt1-boards.o
 .bss           0x60005ab0        0x0 C:/usr/xtensa/XtDevTools/install/builds/RI-2022.10-win32/HiFi_220715_v3p/xtensa-elf/lib/xcc/crti.o
 .bss           0x60005ab0        0x0 C:/usr/xtensa/XtDevTools/install/builds/RI-2022.10-win32/HiFi_220715_v3p/xtensa-elf/lib/xcc/crtbegin.o
 .bss           0x60005ab0        0x0 C:/usr/xtensa/XtDevTools/install/builds/RI-2022.10-win32/HiFi_220715_v3p/xtensa-elf/arch/lib/_sharedvectors.o
 .bss           0x60005ab0        0x0 C:/usr/xtensa/XtDevTools/install/builds/RI-2022.10-win32/HiFi_220715_v3p/xtensa-elf/arch/lib/_vectors.o
 .bss           0x60005ab0        0x0 D:/Skyworks/DTS/DTSX_VX_INT/SM4G_DTSVX_RT_CH_SWAP/SM4G_HIFI5Core0/bin/HiFi_220715_v3p_HiFi0/Debug/source/au_framework/src/c0_audiobufferhandle.o
 .bss           0x60005ab0        0x0 D:/Skyworks/DTS/DTSX_VX_INT/SM4G_DTSVX_RT_CH_SWAP/SM4G_HIFI5Core0/bin/HiFi_220715_v3p_HiFi0/Debug/source/au_framework/src/c0_audiopostprocess.o
 .bss           0x60005ab0        0x4 D:/Skyworks/DTS/DTSX_VX_INT/SM4G_DTSVX_RT_CH_SWAP/SM4G_HIFI5Core0/bin/HiFi_220715_v3p_HiFi0/Debug/source/au_framework/src/c0_audioprocess.o
                0x60005ab0                au_result
 .bss           0x60005ab4        0x0 D:/Skyworks/DTS/DTSX_VX_INT/SM4G_DTSVX_RT_CH_SWAP/SM4G_HIFI5Core0/bin/HiFi_220715_v3p_HiFi0/Debug/source/au_framework/src/c0_main.o
 *fill*         0x60005ab4        0xc 
 .bss           0x60005ac0       0x54 D:/Skyworks/DTS/DTSX_VX_INT/SM4G_DTSVX_RT_CH_SWAP/SM4G_HIFI5Core0/bin/HiFi_220715_v3p_HiFi0/Debug/source/au_framework/src/isr_handler.o
                0x60005ac0                I2SRX0Handle
                0x60005ac4                I2SRX8Handle
                0x60005ad0                I2SRX8DeviceMEM
                0x60005adc                I2SRX1Handle
                0x60005ae0                I2SRX2Handle
                0x60005ae4                I2STX2Handle
                0x60005ae8                I2STX3Handle
                0x60005aec                I2STX4Handle
                0x60005af0                I2STX6Handle
                0x60005b00                I2STX6DeviceMEM
                0x60005b0c                I2STX7Handle
                0x60005b10                I2STX8Handle
 .bss           0x60005b14        0x0 D:/Skyworks/DTS/DTSX_VX_INT/SM4G_DTSVX_RT_CH_SWAP/SM4G_HIFI5Core0/bin/HiFi_220715_v3p_HiFi0/Debug/source/au_framework/src/isr_receive.o
 .bss           0x60005b14        0x0 D:/Skyworks/DTS/DTSX_VX_INT/SM4G_DTSVX_RT_CH_SWAP/SM4G_HIFI5Core0/bin/HiFi_220715_v3p_HiFi0/Debug/source/au_framework/src/isr_transmit.o
 .bss           0x60005b14        0x0 D:/Skyworks/DTS/DTSX_VX_INT/SM4G_DTSVX_RT_CH_SWAP/SM4G_HIFI5Core0/bin/HiFi_220715_v3p_HiFi0/Debug/source/customerpostprocess/c0_customerpostprocess.o
 .bss           0x60005b14        0x8 D:/Skyworks/DTS/DTSX_VX_INT/SM4G_DTSVX_RT_CH_SWAP/SM4G_HIFI5Core0/bin/HiFi_220715_v3p_HiFi0/Debug/source/kernel/target/hifi5/targetinit.o
                0x60005b14                bIFSPadEnabled
                0x60005b18                IFSIntCnt
 .bss           0x60005b1c        0x0 D:/Skyworks/DTS/DTSX_VX_INT/SM4G_DTSVX_RT_CH_SWAP/SM4G_HIFI5Core0/bin/HiFi_220715_v3p_HiFi0/Debug/source/kernel/target/hifi5/vmem.o
 *fill*         0x60005b1c        0x4 
 .bss           0x60005b20       0xe8 D:/Skyworks/DTS/DTSX_VX_INT/SM4G_DTSVX_RT_CH_SWAP/libdrv\libdrv_HIFI0.a(bufmgr.o)
                0x60005b20                g_pBUFMGRChMaintTable
                0x60005b70                g_BUFMGRChInfo
 .bss           0x60005c08        0x0 D:/Skyworks/DTS/DTSX_VX_INT/SM4G_DTSVX_RT_CH_SWAP/libdrv\libdrv_HIFI0.a(clkrst.o)
 .bss           0x60005c08        0x0 D:/Skyworks/DTS/DTSX_VX_INT/SM4G_DTSVX_RT_CH_SWAP/libdrv\libdrv_HIFI0.a(i2srx.o)
 .bss           0x60005c08        0x0 D:/Skyworks/DTS/DTSX_VX_INT/SM4G_DTSVX_RT_CH_SWAP/libdrv\libdrv_HIFI0.a(i2stx.o)
 *fill*         0x60005c08        0x8 
 .bss           0x60005c10      0x2c8 D:/Skyworks/DTS/DTSX_VX_INT/SM4G_DTSVX_RT_CH_SWAP/libdrv\libdrv_HIFI0.a(int.o)
                0x60005c10                g_irq_table
                0x60005ed4                g_pCurrIRQReg
 .bss           0x60005ed8        0x0 D:/Skyworks/DTS/DTSX_VX_INT/SM4G_DTSVX_RT_CH_SWAP/libdrv\libdrv_HIFI0.a(mutex.o)
 .bss           0x60005ed8        0x0 D:/Skyworks/DTS/DTSX_VX_INT/SM4G_DTSVX_RT_CH_SWAP/libdrv\libdrv_HIFI0.a(padcfg.o)
 *fill*         0x60005ed8        0x8 
 .bss           0x60005ee0       0x10 D:/Skyworks/DTS/DTSX_VX_INT/SM4G_DTSVX_RT_CH_SWAP/libdrv\libdrv_HIFI0.a(pinmux.o)
                0x60005ee0                g_PadsIntInfo
 .bss           0x60005ef0        0x0 D:/Skyworks/DTS/DTSX_VX_INT/SM4G_DTSVX_RT_CH_SWAP/libdrv\libdrv_HIFI0.a(pll.o)
 .bss           0x60005ef0        0x0 D:/Skyworks/DTS/DTSX_VX_INT/SM4G_DTSVX_RT_CH_SWAP/libdrv\libdrv_HIFI0.a(frt.o)
 .bss           0x60005ef0        0x0 C:/usr/xtensa/XtDevTools/install/builds/RI-2022.10-win32/HiFi_220715_v3p/xtensa-elf/lib/\libgdbio.a(miniboard.o)
 .bss           0x60005ef0        0x0 C:/usr/xtensa/XtDevTools/install/builds/RI-2022.10-win32/HiFi_220715_v3p/xtensa-elf/lib/xcc/crtend.o
 .bss           0x60005ef0        0x0 C:/usr/xtensa/XtDevTools/install/builds/RI-2022.10-win32/HiFi_220715_v3p/xtensa-elf/lib/xcc/crtn.o
 *(SORT_BY_NAME(.bss.sort.*))
 *(SORT_BY_NAME(.bss.keepsort.*) .bss.keep.*)
 *(.bss.*)
 *(.gnu.linkonce.b.*)
 *(COMMON)
 COMMON         0x60005ef0        0xc C:/usr/xtensa/XtDevTools/install/builds/RI-2022.10-win32/HiFi_220715_v3p/xtensa-elf/arch/lib/\libhandlers-board.a(memerror-vector-S--handler-.o)
                0x60005ef0                _MemErrorSave
 *(.clib.bss)
 .clib.bss      0x60005efc        0x0 C:/usr/xtensa/XtDevTools/install/builds/RI-2022.10-win32/HiFi_220715_v3p/xtensa-elf/lib/\libc.a(memcmp.o)
 .clib.bss      0x60005efc        0x4 C:/usr/xtensa/XtDevTools/install/builds/RI-2022.10-win32/HiFi_220715_v3p/xtensa-elf/lib/\libc.a(clibrary_init.o)
                0x60005efc                __progname
 .clib.bss      0x60005f00        0xc C:/usr/xtensa/XtDevTools/install/builds/RI-2022.10-win32/HiFi_220715_v3p/xtensa-elf/lib/\libc.a(xtensa_exit.o)
                0x60005f00                _Atcount0
                0x60005f04                _atexitfns
                0x60005f08                _atexitfree
 .clib.bss      0x60005f0c        0x0 C:/usr/xtensa/XtDevTools/install/builds/RI-2022.10-win32/HiFi_220715_v3p/xtensa-elf/lib/\libc.a(reent_bss.o)
 .clib.bss      0x60005f0c        0x0 C:/usr/xtensa/XtDevTools/install/builds/RI-2022.10-win32/HiFi_220715_v3p/xtensa-elf/lib/\libc.a(memcpy.o)
 .clib.bss      0x60005f0c        0x0 C:/usr/xtensa/XtDevTools/install/builds/RI-2022.10-win32/HiFi_220715_v3p/xtensa-elf/lib/\libc.a(memset.o)
 .clib.bss      0x60005f0c        0x0 C:/usr/xtensa/XtDevTools/install/builds/RI-2022.10-win32/HiFi_220715_v3p/xtensa-elf/lib/\libc.a(xexit.o)
 .clib.bss      0x60005f0c        0x4 C:/usr/xtensa/XtDevTools/install/builds/RI-2022.10-win32/HiFi_220715_v3p/xtensa-elf/lib/\libc.a(environ.o)
 *(.clib.percpu.bss)
 .clib.percpu.bss
                0x60005f10       0xfc C:/usr/xtensa/XtDevTools/install/builds/RI-2022.10-win32/HiFi_220715_v3p/xtensa-elf/lib/\libc.a(reent_bss.o)
                0x60006008                _reent_ptr
 *(.rtos.percpu.bss)
 .rtos.percpu.bss
                0x6000600c        0x0 C:/usr/xtensa/XtDevTools/install/builds/RI-2022.10-win32/HiFi_220715_v3p/xtensa-elf/arch/lib/\libhandler-reset.a(reset-vector.o)
 .rtos.percpu.bss
                0x6000600c        0x0 C:/usr/xtensa/XtDevTools/install/builds/RI-2022.10-win32/HiFi_220715_v3p/xtensa-elf/arch/lib/\libhandlers-board.a(debug-vector.o)
 .rtos.percpu.bss
                0x6000600c        0x0 C:/usr/xtensa/XtDevTools/install/builds/RI-2022.10-win32/HiFi_220715_v3p/xtensa-elf/arch/lib/\libhandlers-board.a(double-vector.o)
 .rtos.percpu.bss
                0x6000600c        0x0 C:/usr/xtensa/XtDevTools/install/builds/RI-2022.10-win32/HiFi_220715_v3p/xtensa-elf/arch/lib/\libhandlers-board.a(kernel-vector.o)
 .rtos.percpu.bss
                0x6000600c        0x0 C:/usr/xtensa/XtDevTools/install/builds/RI-2022.10-win32/HiFi_220715_v3p/xtensa-elf/arch/lib/\libhandlers-board.a(memctl_default.o)
 .rtos.percpu.bss
                0x6000600c        0x0 C:/usr/xtensa/XtDevTools/install/builds/RI-2022.10-win32/HiFi_220715_v3p/xtensa-elf/arch/lib/\libhandlers-board.a(xtos-interrupt-enable.o)
 .rtos.percpu.bss
                0x6000600c        0x0 C:/usr/xtensa/XtDevTools/install/builds/RI-2022.10-win32/HiFi_220715_v3p/xtensa-elf/arch/lib/\libhandlers-board.a(xtos-interrupt-disable.o)
 .rtos.percpu.bss
                0x6000600c        0x0 C:/usr/xtensa/XtDevTools/install/builds/RI-2022.10-win32/HiFi_220715_v3p/xtensa-elf/arch/lib/\libhandlers-board.a(xtos-set-inthandler.o)
 .rtos.percpu.bss
                0x6000600c        0x0 C:/usr/xtensa/XtDevTools/install/builds/RI-2022.10-win32/HiFi_220715_v3p/xtensa-elf/arch/lib/\libhandlers-board.a(exit.o)
 .rtos.percpu.bss
                0x6000600c        0x0 C:/usr/xtensa/XtDevTools/install/builds/RI-2022.10-win32/HiFi_220715_v3p/xtensa-elf/arch/lib/\libhandlers-board.a(interrupt-table.o)
 .rtos.percpu.bss
                0x6000600c        0x0 C:/usr/xtensa/XtDevTools/install/builds/RI-2022.10-win32/HiFi_220715_v3p/xtensa-elf/arch/lib/\libhandlers-board.a(memerror-vector-S--vector-.o)
 .rtos.percpu.bss
                0x6000600c        0x0 C:/usr/xtensa/XtDevTools/install/builds/RI-2022.10-win32/HiFi_220715_v3p/xtensa-elf/arch/lib/\libhandlers-board.a(user-vector.o)
 .rtos.percpu.bss
                0x6000600c        0x0 C:/usr/xtensa/XtDevTools/install/builds/RI-2022.10-win32/HiFi_220715_v3p/xtensa-elf/arch/lib/\libhandlers-board.a(int-lowpri-dispatcher.o)
 .rtos.percpu.bss
                0x6000600c        0x0 C:/usr/xtensa/XtDevTools/install/builds/RI-2022.10-win32/HiFi_220715_v3p/xtensa-elf/arch/lib/\libhandlers-board.a(window-vectors.o)
 .rtos.percpu.bss
                0x6000600c        0x0 C:/usr/xtensa/XtDevTools/install/builds/RI-2022.10-win32/HiFi_220715_v3p/xtensa-elf/arch/lib/\libhandlers-board.a(int-vector-level2.o)
 *fill*         0x6000600c        0x4 
 .rtos.percpu.bss
                0x60006010      0x54c C:/usr/xtensa/XtDevTools/install/builds/RI-2022.10-win32/HiFi_220715_v3p/xtensa-elf/arch/lib/\libhandlers-board.a(int-handler-level2.o)
 .rtos.percpu.bss
                0x6000655c        0x0 C:/usr/xtensa/XtDevTools/install/builds/RI-2022.10-win32/HiFi_220715_v3p/xtensa-elf/arch/lib/\libhandlers-board.a(exc-unhandled.o)
 .rtos.percpu.bss
                0x6000655c        0x0 C:/usr/xtensa/XtDevTools/install/builds/RI-2022.10-win32/HiFi_220715_v3p/xtensa-elf/arch/lib/\libhandlers-board.a(exc-syscall-handler.o)
 .rtos.percpu.bss
                0x6000655c        0x0 C:/usr/xtensa/XtDevTools/install/builds/RI-2022.10-win32/HiFi_220715_v3p/xtensa-elf/arch/lib/\libhandlers-board.a(memerror-vector-S--handler-.o)
 .rtos.percpu.bss
                0x6000655c        0x0 C:/usr/xtensa/XtDevTools/install/builds/RI-2022.10-win32/HiFi_220715_v3p/xtensa-elf/arch/lib/\libhandlers-board.a(exc-return.o)
 *(.rtos.bss)
 .rtos.bss      0x6000655c        0x0 C:/usr/xtensa/XtDevTools/install/builds/RI-2022.10-win32/HiFi_220715_v3p/xtensa-elf/arch/lib/\libhal.a(cache_asm--dcache_all_writeback.o)
 .rtos.bss      0x6000655c        0x0 C:/usr/xtensa/XtDevTools/install/builds/RI-2022.10-win32/HiFi_220715_v3p/xtensa-elf/arch/lib/\libhal.a(cache_asm--dcache_region_writeback.o)
 .rtos.bss      0x6000655c        0x0 C:/usr/xtensa/XtDevTools/install/builds/RI-2022.10-win32/HiFi_220715_v3p/xtensa-elf/arch/lib/\libhal.a(cache_asm--dcache_region_writeback_inv.o)
 .rtos.bss      0x6000655c        0x0 C:/usr/xtensa/XtDevTools/install/builds/RI-2022.10-win32/HiFi_220715_v3p/xtensa-elf/arch/lib/\libhal.a(cache_asm--hw_configid0.o)
 .rtos.bss      0x6000655c        0x0 C:/usr/xtensa/XtDevTools/install/builds/RI-2022.10-win32/HiFi_220715_v3p/xtensa-elf/arch/lib/\libhal.a(cache_asm--hw_configid1.o)
 .rtos.bss      0x6000655c        0x0 C:/usr/xtensa/XtDevTools/install/builds/RI-2022.10-win32/HiFi_220715_v3p/xtensa-elf/arch/lib/\libhal.a(cache_asm--release_major.o)
 .rtos.bss      0x6000655c        0x0 C:/usr/xtensa/XtDevTools/install/builds/RI-2022.10-win32/HiFi_220715_v3p/xtensa-elf/arch/lib/\libhal.a(cache_asm--release_minor.o)
 .rtos.bss      0x6000655c        0x0 C:/usr/xtensa/XtDevTools/install/builds/RI-2022.10-win32/HiFi_220715_v3p/xtensa-elf/arch/lib/\libhal.a(cache_asm--set_cache_prefetch_long.o)
 .rtos.bss      0x6000655c        0x0 C:/usr/xtensa/XtDevTools/install/builds/RI-2022.10-win32/HiFi_220715_v3p/xtensa-elf/arch/lib/\libhal.a(const--intlevel.o)
 *(.sram.bss)
                0x60006560                . = ALIGN (0x8)
 *fill*         0x6000655c        0x4 
                0x60006560                _bss_end = ABSOLUTE (.)
                0x60006560                _memmap_seg_KERNEL_CODE_DATA_end = ALIGN (0x8)

.Host.text      0x60008640      0x868
                0x60008640                _Host_text_start = ABSOLUTE (.)
 *(.Host.literal .Host.text)
 .Host.literal  0x60008640       0x38 D:/Skyworks/DTS/DTSX_VX_INT/SM4G_DTSVX_RT_CH_SWAP/SM4G_HIFI5Core0/bin/HiFi_220715_v3p_HiFi0/Debug/source/au_framework/src/c0_main.o
                                         0xc8 (size before relaxing)
 .Host.literal  0x60008678       0x18 D:/Skyworks/DTS/DTSX_VX_INT/SM4G_DTSVX_RT_CH_SWAP/SM4G_HIFI5Core0/bin/HiFi_220715_v3p_HiFi0/Debug/source/au_framework/src/isr_handler.o
                                         0x48 (size before relaxing)
 .Host.literal  0x60008690       0x10 D:/Skyworks/DTS/DTSX_VX_INT/SM4G_DTSVX_RT_CH_SWAP/SM4G_HIFI5Core0/bin/HiFi_220715_v3p_HiFi0/Debug/source/kernel/target/hifi5/targetinit.o
                                         0x34 (size before relaxing)
 *fill*         0x600086a0        0x0 
 .Host.text     0x600086a0      0x724 D:/Skyworks/DTS/DTSX_VX_INT/SM4G_DTSVX_RT_CH_SWAP/SM4G_HIFI5Core0/bin/HiFi_220715_v3p_HiFi0/Debug/source/au_framework/src/c0_main.o
                0x600086a0                au_stateinfo_comparison
                0x600087c4                au_controlword_process
                0x60008a74                au_stateinfo_update
                0x60008b48                input_config
                0x60008c10                au_controlword_process_core1
                0x60008c74                au_controlword_process_core2
                0x60008cd8                au_stateinfo_compare
 .Host.text     0x60008dc4       0x95 D:/Skyworks/DTS/DTSX_VX_INT/SM4G_DTSVX_RT_CH_SWAP/SM4G_HIFI5Core0/bin/HiFi_220715_v3p_HiFi0/Debug/source/au_framework/src/isr_handler.o
                                         0xa8 (size before relaxing)
                0x60008dc4                MutexMsgRepCallback
 *fill*         0x60008e59        0x3 
 .Host.text     0x60008e5c       0x4c D:/Skyworks/DTS/DTSX_VX_INT/SM4G_DTSVX_RT_CH_SWAP/SM4G_HIFI5Core0/bin/HiFi_220715_v3p_HiFi0/Debug/source/kernel/target/hifi5/targetinit.o
                                         0x5f (size before relaxing)
                0x60008e5c                configure_mutex
                0x60008e98                enable_mutex
 *fill*         0x60008ea8        0x0 
                0x60008ea8                . = ALIGN (0x4)
 *fill*         0x60008ea8        0x0 
                0x60008ea8                _Host_text_end = ABSOLUTE (.)

.Isr.text       0x60008ea8      0x228
                0x60008ea8                _Isr_text_start = ABSOLUTE (.)
 *(.Isr.literal .Isr.text)
 .Isr.literal   0x60008ea8       0x1c D:/Skyworks/DTS/DTSX_VX_INT/SM4G_DTSVX_RT_CH_SWAP/SM4G_HIFI5Core0/bin/HiFi_220715_v3p_HiFi0/Debug/source/au_framework/src/isr_handler.o
                                         0x88 (size before relaxing)
 .Isr.text      0x60008ec4      0x20b D:/Skyworks/DTS/DTSX_VX_INT/SM4G_DTSVX_RT_CH_SWAP/SM4G_HIFI5Core0/bin/HiFi_220715_v3p_HiFi0/Debug/source/au_framework/src/isr_handler.o
                                        0x247 (size before relaxing)
                0x60008ec4                I2SRX0Callback
                0x60008fa0                I2STX2Callback
                0x600090d0                . = ALIGN (0x4)
 *fill*         0x600090cf        0x1 
                0x600090d0                _Isr_text_end = ABSOLUTE (.)

.Framework.text
                0x600090d0     0x1c60
                0x600090d0                _Framework_text_start = ABSOLUTE (.)
 *(.Framework.literal .Framework.text)
 .Framework.literal
                0x600090d0        0x4 D:/Skyworks/DTS/DTSX_VX_INT/SM4G_DTSVX_RT_CH_SWAP/SM4G_HIFI5Core0/bin/HiFi_220715_v3p_HiFi0/Debug/source/au_framework/src/c0_audiopostprocess.o
                                          0x8 (size before relaxing)
 .Framework.literal
                0x600090d4       0x18 D:/Skyworks/DTS/DTSX_VX_INT/SM4G_DTSVX_RT_CH_SWAP/SM4G_HIFI5Core0/bin/HiFi_220715_v3p_HiFi0/Debug/source/au_framework/src/c0_audioprocess.o
                                         0x80 (size before relaxing)
 .Framework.literal
                0x600090ec        0x8 D:/Skyworks/DTS/DTSX_VX_INT/SM4G_DTSVX_RT_CH_SWAP/SM4G_HIFI5Core0/bin/HiFi_220715_v3p_HiFi0/Debug/source/au_framework/src/c0_main.o
                                         0x18 (size before relaxing)
 .Framework.literal
                0x600090f4        0x8 D:/Skyworks/DTS/DTSX_VX_INT/SM4G_DTSVX_RT_CH_SWAP/SM4G_HIFI5Core0/bin/HiFi_220715_v3p_HiFi0/Debug/source/au_framework/src/isr_receive.o
                                         0x20 (size before relaxing)
 .Framework.literal
                0x600090fc        0x0 D:/Skyworks/DTS/DTSX_VX_INT/SM4G_DTSVX_RT_CH_SWAP/SM4G_HIFI5Core0/bin/HiFi_220715_v3p_HiFi0/Debug/source/au_framework/src/isr_transmit.o
                                         0x1c (size before relaxing)
 .Framework.literal
                0x600090fc        0x4 D:/Skyworks/DTS/DTSX_VX_INT/SM4G_DTSVX_RT_CH_SWAP/SM4G_HIFI5Core0/bin/HiFi_220715_v3p_HiFi0/Debug/source/customerpostprocess/c0_customerpostprocess.o
                                         0x24 (size before relaxing)
 .Framework.literal
                0x60009100       0xd4 D:/Skyworks/DTS/DTSX_VX_INT/SM4G_DTSVX_RT_CH_SWAP/SM4G_HIFI5Core0/bin/HiFi_220715_v3p_HiFi0/Debug/source/kernel/target/hifi5/targetinit.o
                                        0x3b4 (size before relaxing)
 .Framework.text
                0x600091d4       0x38 D:/Skyworks/DTS/DTSX_VX_INT/SM4G_DTSVX_RT_CH_SWAP/SM4G_HIFI5Core0/bin/HiFi_220715_v3p_HiFi0/Debug/source/au_framework/src/c0_audiopostprocess.o
                                         0x3b (size before relaxing)
                0x600091d4                au_postprocess
 *fill*         0x6000920c        0x4 
 .Framework.text
                0x60009210      0x95f D:/Skyworks/DTS/DTSX_VX_INT/SM4G_DTSVX_RT_CH_SWAP/SM4G_HIFI5Core0/bin/HiFi_220715_v3p_HiFi0/Debug/source/au_framework/src/c0_audioprocess.o
                0x60009210                audioprocess
                0x60009308                au_memallocation
                0x6000946c                au_resetsystemvariables
                0x6000948c                mpcmprocess
                0x6000987c                au_reset_buf
                0x600098e4                isinbitstreamavailable
                0x60009910                isoutpcmbufavailable
                0x60009948                au_inbitstreambuf2processingbuf
                0x60009970                au_ptr_update
                0x600099a0                au_processingbuf2outpcmbuf
                0x60009a30                routing_12_channel
                0x60009a8c                iccdata_sendc0toc1
                0x60009ae8                au_resetmemallocation
                0x60009b50                au_resetsysetemvariables_fs
 *fill*         0x60009b6f        0x1 
 .Framework.text
                0x60009b70      0x19a D:/Skyworks/DTS/DTSX_VX_INT/SM4G_DTSVX_RT_CH_SWAP/SM4G_HIFI5Core0/bin/HiFi_220715_v3p_HiFi0/Debug/source/au_framework/src/c0_main.o
                0x60009b70                au_frameworkinit
 *fill*         0x60009d0a        0x6 
 .Framework.text
                0x60009d10      0x275 D:/Skyworks/DTS/DTSX_VX_INT/SM4G_DTSVX_RT_CH_SWAP/SM4G_HIFI5Core0/bin/HiFi_220715_v3p_HiFi0/Debug/source/au_framework/src/isr_receive.o
                0x60009d10                isr_receiver
                0x60009e80                rx_intermediate_copy
 *fill*         0x60009f85        0xb 
 .Framework.text
                0x60009f90      0x506 D:/Skyworks/DTS/DTSX_VX_INT/SM4G_DTSVX_RT_CH_SWAP/SM4G_HIFI5Core0/bin/HiFi_220715_v3p_HiFi0/Debug/source/au_framework/src/isr_transmit.o
                0x60009f90                isr_transmit
                0x6000a12c                tx_copy_zeros_dma
                0x6000a194                au_outpcmbuf2txdmabuf
                0x6000a46c                tx_kernel_variable_reinit
 *fill*         0x6000a496        0x2 
 .Framework.text
                0x6000a498      0x179 D:/Skyworks/DTS/DTSX_VX_INT/SM4G_DTSVX_RT_CH_SWAP/SM4G_HIFI5Core0/bin/HiFi_220715_v3p_HiFi0/Debug/source/customerpostprocess/c0_customerpostprocess.o
                                        0x181 (size before relaxing)
                0x6000a498                customerpostprocess
                0x6000a550                customerpp_param_list
                0x6000a5b4                au_processingbuf2customerppbuf
                0x6000a5e0                au_customerppbuf2processingbuf
                0x6000a60c                customerpp
 *fill*         0x6000a611        0x3 
 .Framework.text
                0x6000a614      0x5ed D:/Skyworks/DTS/DTSX_VX_INT/SM4G_DTSVX_RT_CH_SWAP/SM4G_HIFI5Core0/bin/HiFi_220715_v3p_HiFi0/Debug/source/kernel/target/hifi5/targetinit.o
                                        0x789 (size before relaxing)
                0x6000a614                au_targetHWinit
                0x6000a7c4                configure_i2srx_ports
                0x6000a8ac                configure_i2stx_ports
                0x6000a9f4                IFSIntCallback
                0x6000aa2c                clock_config
                0x6000aa80                ports_reconfig
                0x6000aab8                stop_i2s
                0x6000ab50                re_enable_i2s
 *fill*         0x6000ac01        0x3 
 .Framework.literal
                0x6000ac04        0x0 D:/Skyworks/DTS/DTSX_VX_INT/SM4G_DTSVX_RT_CH_SWAP/SM4G_HIFI5Core0/bin/HiFi_220715_v3p_HiFi0/Debug/source/au_framework/src/c0_audiobufferhandle.o
 *fill*         0x6000ac04        0xc 
 .Framework.text
                0x6000ac10      0x120 D:/Skyworks/DTS/DTSX_VX_INT/SM4G_DTSVX_RT_CH_SWAP/SM4G_HIFI5Core0/bin/HiFi_220715_v3p_HiFi0/Debug/source/au_framework/src/c0_audiobufferhandle.o
                0x6000ac10                au_write_data_to_buf
 *fill*         0x6000ad30        0x0 
 *fill*         0x6000ad30        0x0 
 *fill*         0x6000ad30        0x0 
 *fill*         0x6000ad30        0x0 
 *fill*         0x6000ad30        0x0 
 *fill*         0x6000ad30        0x0 
 *fill*         0x6000ad30        0x0 
 *fill*         0x6000ad30        0x0 
 *fill*         0x6000ad30        0x0 
                0x6000ad30                . = ALIGN (0x4)
 *fill*         0x6000ad30        0x0 
                0x6000ad30                _Framework_text_end = ABSOLUTE (.)
                0x6000ad30                _memmap_seg_FRAMEWORK_CODE_end = ALIGN (0x8)

.Isr.data       0x60027c00     0x6500
                0x60027c00                _Isr_data_start = ABSOLUTE (.)
 *(.Isr.data)
 .Isr.data      0x60027c00     0x6500 D:/Skyworks/DTS/DTSX_VX_INT/SM4G_DTSVX_RT_CH_SWAP/SM4G_HIFI5Core0/bin/HiFi_220715_v3p_HiFi0/Debug/source/au_framework/src/isr_handler.o
                0x60027c00                I2STX8Buff1
                0x60027d00                I2SRX0DeviceMEM
                0x60027d10                I2SRX1DeviceMEM
                0x60027d20                I2SRX2DeviceMEM
                0x60027d30                I2STX2DeviceMEM
                0x60027d40                I2STX3DeviceMEM
                0x60027d50                I2STX4DeviceMEM
                0x60027d60                I2STX7DeviceMEM
                0x60027d70                I2STX8DeviceMEM
                0x60027d80                command_receive_buffer
                0x60029800                I2SRX0Buff0
                0x60029c00                I2SRX8Buff0
                0x6002a000                I2SRX1Buff0
                0x6002a100                I2SRX0Buff0Cnt
                0x6002a104                I2SRX0Buff1Cnt
                0x6002a108                I2SRX0Cnt
                0x6002a10c                I2STX2Buff0Cnt
                0x6002a110                I2STX2Buff1Cnt
                0x6002a114                I2STX2Cnt
                0x6002a118                BlockRcvd0
                0x6002a119                BlockSent2
                0x6002a400                I2SRX2Buff0
                0x6002a800                I2SRX0Buff1
                0x6002ac00                I2SRX8Buff1
                0x6002b000                I2SRX1Buff1
                0x6002b400                I2SRX2Buff1
                0x6002b800                I2STX2Buff0
                0x6002bc00                I2STX6Buff0
                0x6002c000                I2STX3Buff0
                0x6002c400                I2STX4Buff0
                0x6002c800                I2STX7Buff0
                0x6002cc00                I2STX8Buff0
                0x6002d000                I2STX2Buff1
                0x6002d400                I2STX6Buff1
                0x6002d800                I2STX3Buff1
                0x6002dc00                I2STX4Buff1
                0x6002e000                I2STX7Buff1
                0x6002e100                . = ALIGN (0x4)
                0x6002e100                _Isr_data_end = ABSOLUTE (.)

.Framework.data
                0x6002e100     0x6718
                0x6002e100                _Framework_data_start = ABSOLUTE (.)
 *(.Framework.data)
 .Framework.data
                0x6002e100      0x2dc D:/Skyworks/DTS/DTSX_VX_INT/SM4G_DTSVX_RT_CH_SWAP/SM4G_HIFI5Core0/bin/HiFi_220715_v3p_HiFi0/Debug/source/au_framework/src/c0_audioprocess.o
                0x6002e100                p_core0
 *fill*         0x6002e3dc        0x4 
 .Framework.data
                0x6002e3e0     0x3020 D:/Skyworks/DTS/DTSX_VX_INT/SM4G_DTSVX_RT_CH_SWAP/SM4G_HIFI5Core0/bin/HiFi_220715_v3p_HiFi0/Debug/source/au_framework/src/c0_main.o
                0x6002e3e0                channel_routing
                0x6002e3e4                core0_sync_bit
                0x6002e3f0                c0_processingbuf
                0x600313f0                AudioFormatDetectValue_Save
                0x600313f4                core1_sync_start
                0x600313f8                core2_sync_start
                0x600313fc                au_status
 .Framework.data
                0x60031400      0x410 D:/Skyworks/DTS/DTSX_VX_INT/SM4G_DTSVX_RT_CH_SWAP/SM4G_HIFI5Core0/bin/HiFi_220715_v3p_HiFi0/Debug/source/au_framework/src/isr_receive.o
                0x60031400                formatdetectInBuf_Cnt
                0x60031410                formatdetectInBuf
 .Framework.data
                0x60031810     0x3000 D:/Skyworks/DTS/DTSX_VX_INT/SM4G_DTSVX_RT_CH_SWAP/SM4G_HIFI5Core0/bin/HiFi_220715_v3p_HiFi0/Debug/source/customerpostprocess/c0_customerpostprocess.o
                0x60031810                customerppbuf
 .Framework.data
                0x60034810        0x8 D:/Skyworks/DTS/DTSX_VX_INT/SM4G_DTSVX_RT_CH_SWAP/SM4G_HIFI5Core0/bin/HiFi_220715_v3p_HiFi0/Debug/source/kernel/target/hifi5/targetinit.o
                0x60034810                set_clkdiv
                0x60034814                set_fsdiv
                0x60034818                . = ALIGN (0x4)
                0x60034818                _Framework_data_end = ABSOLUTE (.)
                0x60034818                _memmap_seg_FRAMEWORK_DATA_end = ALIGN (0x8)

.Inbitstream.data
                0x6004d240     0x4000
                0x6004d240                _Inbitstream_data_start = ABSOLUTE (.)
 *(.Inbitstream.data)
 .Inbitstream.data
                0x6004d240     0x4000 D:/Skyworks/DTS/DTSX_VX_INT/SM4G_DTSVX_RT_CH_SWAP/SM4G_HIFI5Core0/bin/HiFi_220715_v3p_HiFi0/Debug/source/au_framework/src/c0_main.o
                0x6004d240                inbitstreambuf
                0x60051240                . = ALIGN (0x4)
                0x60051240                _Inbitstream_data_end = ABSOLUTE (.)
                0x60051240                _memmap_seg_INBITSTREAM_DATA_end = ALIGN (0x8)
                0x6005ba38                _end = 0x6005ba38
                [!provide]                        PROVIDE (end = 0x6005ba38)
                0x6005ba38                _stack_sentry = 0x6005ba38
                0x6005e230                PROVIDE (__stack = 0x6005e230)
                0x6005e230                _heap_sentry = 0x6005e230
                0x60051240                _memmap_mem_sram_max = ABSOLUTE (.)

.Icc_host.data  0x80000000     0x1a78
                0x80000000                _Icc_host_data_start = ABSOLUTE (.)
 *(.Icc_host.data)
 .Icc_host.data
                0x80000000     0x1a78 D:/Skyworks/DTS/DTSX_VX_INT/SM4G_DTSVX_RT_CH_SWAP/SM4G_HIFI5Core0/bin/HiFi_220715_v3p_HiFi0/Debug/source/au_framework/src/isr_handler.o
                0x80000000                cmdbuff
                0x80000100                hifi0_command_buff
                0x80001a00                hifi0_status_buff
                0x80001a78                . = ALIGN (0x4)
                0x80001a78                _Icc_host_data_end = ABSOLUTE (.)
                0x80001a78                _memmap_seg_ICC_HOST_DATA_end = ALIGN (0x8)

.Icc_dsp.data   0x8000a000      0x238
                0x8000a000                _Icc_dsp_data_start = ABSOLUTE (.)
 *(.Icc_dsp.data)
 .Icc_dsp.data  0x8000a000      0x238 D:/Skyworks/DTS/DTSX_VX_INT/SM4G_DTSVX_RT_CH_SWAP/SM4G_HIFI5Core0/bin/HiFi_220715_v3p_HiFi0/Debug/source/au_framework/src/c0_audioprocess.o
                0x8000a000                p_icc
                0x8000a238                . = ALIGN (0x4)
                0x8000a238                _Icc_dsp_data_end = ABSOLUTE (.)
                0x8000a238                _memmap_seg_ICC_DSP_DATA_end = ALIGN (0x8)

.Icc_outpcm.data
                0x80016800     0xc000
                0x80016800                _Icc_outpcm_data_start = ABSOLUTE (.)
 *(.Icc_outpcm.data)
 .Icc_outpcm.data
                0x80016800     0xc000 D:/Skyworks/DTS/DTSX_VX_INT/SM4G_DTSVX_RT_CH_SWAP/SM4G_HIFI5Core0/bin/HiFi_220715_v3p_HiFi0/Debug/source/au_framework/src/c0_main.o
                0x80016800                outpcmbuf
                0x80022800                . = ALIGN (0x4)
                0x80022800                _Icc_outpcm_data_end = ABSOLUTE (.)
                0x80022800                _memmap_seg_ICC_OUTPCM_DATA_end = ALIGN (0x8)

.Icc_metadata.data
                0x80076800        0x0
                0x80076800                _Icc_metadata_data_start = ABSOLUTE (.)
 *(.Icc_metadata.data)
                0x80076800                . = ALIGN (0x4)
                0x80076800                _Icc_metadata_data_end = ABSOLUTE (.)
                0x80076800                _memmap_seg_ICC_METADATA_end = ALIGN (0x8)

.sramicc.fixed  0x800c5800        0x0
                0x800c5800                _sramicc_fixed_start = ABSOLUTE (.)
 *(.sramicc.fixed)
                0x800c5800                . = ALIGN (0x4)
                0x800c5800                _sramicc_fixed_end = ABSOLUTE (.)
                0x800c5800                _memmap_seg_ICC_RESERVED_MEM_end = ALIGN (0x8)
                0x800c5800                _memmap_mem_sramicc_max = ABSOLUTE (.)

.sramuc.data    0x80343000        0x0
                0x80343000                _sramuc_data_start = ABSOLUTE (.)
 *(.sramuc.data)
                0x80343000                . = ALIGN (0x4)
                0x80343000                _sramuc_data_end = ABSOLUTE (.)

.sramuc.bss     0x80343000        0x0
                0x80343000                . = ALIGN (0x8)
                0x80343000                _sramuc_bss_start = ABSOLUTE (.)
 *(.sramuc.bss)
                0x80343000                . = ALIGN (0x8)
                0x80343000                _sramuc_bss_end = ABSOLUTE (.)
                0x80343000                _memmap_seg_FRAMEWORK_UC_end = ALIGN (0x8)
                0x80343000                _memmap_mem_sramuc_max = ABSOLUTE (.)

.debug
 *(.debug)

.line
 *(.line)

.debug_srcinfo
 *(.debug_srcinfo)

.debug_sfnames
 *(.debug_sfnames)

.debug_aranges  0x00000000      0x2e8
 *(.debug_aranges)
 .debug_aranges
                0x00000000       0x20 C:/usr/xtensa/XtDevTools/install/builds/RI-2022.10-win32/HiFi_220715_v3p/xtensa-elf/arch/lib/crt1-boards.o
 .debug_aranges
                0x00000020       0x20 C:/usr/xtensa/XtDevTools/install/builds/RI-2022.10-win32/HiFi_220715_v3p/xtensa-elf/lib/\libc.a(memcpy.o)
 .debug_aranges
                0x00000040       0x20 C:/usr/xtensa/XtDevTools/install/builds/RI-2022.10-win32/HiFi_220715_v3p/xtensa-elf/lib/\libc.a(memset.o)
 .debug_aranges
                0x00000060       0x20 C:/usr/xtensa/XtDevTools/install/builds/RI-2022.10-win32/HiFi_220715_v3p/xtensa-elf/arch/lib/\libhandler-reset.a(reset-vector.o)
 .debug_aranges
                0x00000080       0x20 C:/usr/xtensa/XtDevTools/install/builds/RI-2022.10-win32/HiFi_220715_v3p/xtensa-elf/arch/lib/\libhandlers-board.a(debug-vector.o)
 .debug_aranges
                0x000000a0       0x20 C:/usr/xtensa/XtDevTools/install/builds/RI-2022.10-win32/HiFi_220715_v3p/xtensa-elf/arch/lib/\libhandlers-board.a(double-vector.o)
 .debug_aranges
                0x000000c0       0x20 C:/usr/xtensa/XtDevTools/install/builds/RI-2022.10-win32/HiFi_220715_v3p/xtensa-elf/arch/lib/\libhandlers-board.a(kernel-vector.o)
 .debug_aranges
                0x000000e0       0x20 C:/usr/xtensa/XtDevTools/install/builds/RI-2022.10-win32/HiFi_220715_v3p/xtensa-elf/arch/lib/\libhandlers-board.a(exit.o)
 .debug_aranges
                0x00000100       0x20 C:/usr/xtensa/XtDevTools/install/builds/RI-2022.10-win32/HiFi_220715_v3p/xtensa-elf/arch/lib/\libhandlers-board.a(interrupt-table.o)
 .debug_aranges
                0x00000120       0x20 C:/usr/xtensa/XtDevTools/install/builds/RI-2022.10-win32/HiFi_220715_v3p/xtensa-elf/arch/lib/\libhandlers-board.a(memerror-vector-S--vector-.o)
 .debug_aranges
                0x00000140       0x28 C:/usr/xtensa/XtDevTools/install/builds/RI-2022.10-win32/HiFi_220715_v3p/xtensa-elf/arch/lib/\libhandlers-board.a(user-vector.o)
 .debug_aranges
                0x00000168       0x20 C:/usr/xtensa/XtDevTools/install/builds/RI-2022.10-win32/HiFi_220715_v3p/xtensa-elf/arch/lib/\libhandlers-board.a(int-lowpri-dispatcher.o)
 .debug_aranges
                0x00000188       0x20 C:/usr/xtensa/XtDevTools/install/builds/RI-2022.10-win32/HiFi_220715_v3p/xtensa-elf/arch/lib/\libhandlers-board.a(window-vectors.o)
 .debug_aranges
                0x000001a8       0x20 C:/usr/xtensa/XtDevTools/install/builds/RI-2022.10-win32/HiFi_220715_v3p/xtensa-elf/arch/lib/\libhandlers-board.a(int-vector-level2.o)
 .debug_aranges
                0x000001c8       0x20 C:/usr/xtensa/XtDevTools/install/builds/RI-2022.10-win32/HiFi_220715_v3p/xtensa-elf/arch/lib/\libhandlers-board.a(int-handler-level2.o)
 .debug_aranges
                0x000001e8       0x20 C:/usr/xtensa/XtDevTools/install/builds/RI-2022.10-win32/HiFi_220715_v3p/xtensa-elf/arch/lib/\libhandlers-board.a(exc-unhandled.o)
 .debug_aranges
                0x00000208       0x20 C:/usr/xtensa/XtDevTools/install/builds/RI-2022.10-win32/HiFi_220715_v3p/xtensa-elf/arch/lib/\libhandlers-board.a(exc-syscall-handler.o)
 .debug_aranges
                0x00000228       0x20 C:/usr/xtensa/XtDevTools/install/builds/RI-2022.10-win32/HiFi_220715_v3p/xtensa-elf/arch/lib/\libhandlers-board.a(memerror-vector-S--handler-.o)
 .debug_aranges
                0x00000248       0x20 C:/usr/xtensa/XtDevTools/install/builds/RI-2022.10-win32/HiFi_220715_v3p/xtensa-elf/arch/lib/\libhandlers-board.a(exc-return.o)
 .debug_aranges
                0x00000268       0x20 C:/usr/xtensa/XtDevTools/install/builds/RI-2022.10-win32/HiFi_220715_v3p/xtensa-elf/arch/lib/\libhal.a(cache_asm--dcache_all_writeback.o)
 .debug_aranges
                0x00000288       0x20 C:/usr/xtensa/XtDevTools/install/builds/RI-2022.10-win32/HiFi_220715_v3p/xtensa-elf/arch/lib/\libhal.a(cache_asm--dcache_region_writeback.o)
 .debug_aranges
                0x000002a8       0x20 C:/usr/xtensa/XtDevTools/install/builds/RI-2022.10-win32/HiFi_220715_v3p/xtensa-elf/arch/lib/\libhal.a(cache_asm--dcache_region_writeback_inv.o)
 .debug_aranges
                0x000002c8       0x20 C:/usr/xtensa/XtDevTools/install/builds/RI-2022.10-win32/HiFi_220715_v3p/xtensa-elf/arch/lib/\libhal.a(cache_asm--set_cache_prefetch_long.o)

.debug_ranges   0x00000000      0x1e0
 *(.debug_ranges)
 .debug_ranges  0x00000000       0x68 D:/Skyworks/DTS/DTSX_VX_INT/SM4G_DTSVX_RT_CH_SWAP/SM4G_HIFI5Core0/bin/HiFi_220715_v3p_HiFi0/Debug/source/au_framework/src/c0_audiobufferhandle.o
 .debug_ranges  0x00000068       0x48 D:/Skyworks/DTS/DTSX_VX_INT/SM4G_DTSVX_RT_CH_SWAP/SM4G_HIFI5Core0/bin/HiFi_220715_v3p_HiFi0/Debug/source/au_framework/src/c0_audioprocess.o
 .debug_ranges  0x000000b0       0x50 D:/Skyworks/DTS/DTSX_VX_INT/SM4G_DTSVX_RT_CH_SWAP/SM4G_HIFI5Core0/bin/HiFi_220715_v3p_HiFi0/Debug/source/au_framework/src/c0_main.o
 .debug_ranges  0x00000100       0x18 D:/Skyworks/DTS/DTSX_VX_INT/SM4G_DTSVX_RT_CH_SWAP/SM4G_HIFI5Core0/bin/HiFi_220715_v3p_HiFi0/Debug/source/au_framework/src/isr_handler.o
 .debug_ranges  0x00000118       0x48 D:/Skyworks/DTS/DTSX_VX_INT/SM4G_DTSVX_RT_CH_SWAP/SM4G_HIFI5Core0/bin/HiFi_220715_v3p_HiFi0/Debug/source/au_framework/src/isr_receive.o
 .debug_ranges  0x00000160       0x18 D:/Skyworks/DTS/DTSX_VX_INT/SM4G_DTSVX_RT_CH_SWAP/SM4G_HIFI5Core0/bin/HiFi_220715_v3p_HiFi0/Debug/source/au_framework/src/isr_transmit.o
 .debug_ranges  0x00000178       0x48 D:/Skyworks/DTS/DTSX_VX_INT/SM4G_DTSVX_RT_CH_SWAP/SM4G_HIFI5Core0/bin/HiFi_220715_v3p_HiFi0/Debug/source/kernel/target/hifi5/targetinit.o
 .debug_ranges  0x000001c0       0x20 C:/usr/xtensa/XtDevTools/install/builds/RI-2022.10-win32/HiFi_220715_v3p/xtensa-elf/arch/lib/\libhandlers-board.a(user-vector.o)

.debug_pubnames
 *(.debug_pubnames)

.debug_info     0x00000000     0x5a82
 *(.debug_info)
 .debug_info    0x00000000       0x26 C:/usr/xtensa/XtDevTools/install/builds/RI-2022.10-win32/HiFi_220715_v3p/xtensa-elf/arch/lib/crt1-boards.o
 .debug_info    0x00000026      0x16f D:/Skyworks/DTS/DTSX_VX_INT/SM4G_DTSVX_RT_CH_SWAP/SM4G_HIFI5Core0/bin/HiFi_220715_v3p_HiFi0/Debug/source/au_framework/src/c0_audiobufferhandle.o
 .debug_info    0x00000195       0x69 D:/Skyworks/DTS/DTSX_VX_INT/SM4G_DTSVX_RT_CH_SWAP/SM4G_HIFI5Core0/bin/HiFi_220715_v3p_HiFi0/Debug/source/au_framework/src/c0_audiopostprocess.o
 .debug_info    0x000001fe     0x157b D:/Skyworks/DTS/DTSX_VX_INT/SM4G_DTSVX_RT_CH_SWAP/SM4G_HIFI5Core0/bin/HiFi_220715_v3p_HiFi0/Debug/source/au_framework/src/c0_audioprocess.o
 .debug_info    0x00001779      0xe87 D:/Skyworks/DTS/DTSX_VX_INT/SM4G_DTSVX_RT_CH_SWAP/SM4G_HIFI5Core0/bin/HiFi_220715_v3p_HiFi0/Debug/source/au_framework/src/c0_main.o
 .debug_info    0x00002600      0x79a D:/Skyworks/DTS/DTSX_VX_INT/SM4G_DTSVX_RT_CH_SWAP/SM4G_HIFI5Core0/bin/HiFi_220715_v3p_HiFi0/Debug/source/au_framework/src/isr_handler.o
 .debug_info    0x00002d9a      0x1d2 D:/Skyworks/DTS/DTSX_VX_INT/SM4G_DTSVX_RT_CH_SWAP/SM4G_HIFI5Core0/bin/HiFi_220715_v3p_HiFi0/Debug/source/au_framework/src/isr_receive.o
 .debug_info    0x00002f6c      0x364 D:/Skyworks/DTS/DTSX_VX_INT/SM4G_DTSVX_RT_CH_SWAP/SM4G_HIFI5Core0/bin/HiFi_220715_v3p_HiFi0/Debug/source/au_framework/src/isr_transmit.o
 .debug_info    0x000032d0      0xcd4 D:/Skyworks/DTS/DTSX_VX_INT/SM4G_DTSVX_RT_CH_SWAP/SM4G_HIFI5Core0/bin/HiFi_220715_v3p_HiFi0/Debug/source/customerpostprocess/c0_customerpostprocess.o
 .debug_info    0x00003fa4      0xcff D:/Skyworks/DTS/DTSX_VX_INT/SM4G_DTSVX_RT_CH_SWAP/SM4G_HIFI5Core0/bin/HiFi_220715_v3p_HiFi0/Debug/source/kernel/target/hifi5/targetinit.o
 .debug_info    0x00004ca3      0x21c D:/Skyworks/DTS/DTSX_VX_INT/SM4G_DTSVX_RT_CH_SWAP/SM4G_HIFI5Core0/bin/HiFi_220715_v3p_HiFi0/Debug/source/kernel/target/hifi5/vmem.o
 .debug_info    0x00004ebf       0xc4 C:/usr/xtensa/XtDevTools/install/builds/RI-2022.10-win32/HiFi_220715_v3p/xtensa-elf/lib/\libc.a(memcmp.o)
 .debug_info    0x00004f83       0xd3 C:/usr/xtensa/XtDevTools/install/builds/RI-2022.10-win32/HiFi_220715_v3p/xtensa-elf/lib/\libc.a(clibrary_init.o)
 .debug_info    0x00005056      0x112 C:/usr/xtensa/XtDevTools/install/builds/RI-2022.10-win32/HiFi_220715_v3p/xtensa-elf/lib/\libc.a(xtensa_exit.o)
 .debug_info    0x00005168      0x1e8 C:/usr/xtensa/XtDevTools/install/builds/RI-2022.10-win32/HiFi_220715_v3p/xtensa-elf/lib/\libc.a(reent_bss.o)
 .debug_info    0x00005350       0x26 C:/usr/xtensa/XtDevTools/install/builds/RI-2022.10-win32/HiFi_220715_v3p/xtensa-elf/lib/\libc.a(memcpy.o)
 .debug_info    0x00005376       0x26 C:/usr/xtensa/XtDevTools/install/builds/RI-2022.10-win32/HiFi_220715_v3p/xtensa-elf/lib/\libc.a(memset.o)
 .debug_info    0x0000539c       0x65 C:/usr/xtensa/XtDevTools/install/builds/RI-2022.10-win32/HiFi_220715_v3p/xtensa-elf/lib/\libc.a(xexit.o)
 .debug_info    0x00005401       0x67 C:/usr/xtensa/XtDevTools/install/builds/RI-2022.10-win32/HiFi_220715_v3p/xtensa-elf/lib/\libc.a(environ.o)
 .debug_info    0x00005468       0x38 C:/usr/xtensa/XtDevTools/install/builds/RI-2022.10-win32/HiFi_220715_v3p/xtensa-elf/lib/\libgdbio.a(miniboard.o)
 .debug_info    0x000054a0       0x26 C:/usr/xtensa/XtDevTools/install/builds/RI-2022.10-win32/HiFi_220715_v3p/xtensa-elf/arch/lib/\libhandler-reset.a(reset-vector.o)
 .debug_info    0x000054c6       0x26 C:/usr/xtensa/XtDevTools/install/builds/RI-2022.10-win32/HiFi_220715_v3p/xtensa-elf/arch/lib/\libhandlers-board.a(debug-vector.o)
 .debug_info    0x000054ec       0x26 C:/usr/xtensa/XtDevTools/install/builds/RI-2022.10-win32/HiFi_220715_v3p/xtensa-elf/arch/lib/\libhandlers-board.a(double-vector.o)
 .debug_info    0x00005512       0x26 C:/usr/xtensa/XtDevTools/install/builds/RI-2022.10-win32/HiFi_220715_v3p/xtensa-elf/arch/lib/\libhandlers-board.a(kernel-vector.o)
 .debug_info    0x00005538       0xa6 C:/usr/xtensa/XtDevTools/install/builds/RI-2022.10-win32/HiFi_220715_v3p/xtensa-elf/arch/lib/\libhandlers-board.a(xtos-interrupt-enable.o)
 .debug_info    0x000055de       0xa6 C:/usr/xtensa/XtDevTools/install/builds/RI-2022.10-win32/HiFi_220715_v3p/xtensa-elf/arch/lib/\libhandlers-board.a(xtos-interrupt-disable.o)
 .debug_info    0x00005684      0x148 C:/usr/xtensa/XtDevTools/install/builds/RI-2022.10-win32/HiFi_220715_v3p/xtensa-elf/arch/lib/\libhandlers-board.a(xtos-set-inthandler.o)
 .debug_info    0x000057cc       0x26 C:/usr/xtensa/XtDevTools/install/builds/RI-2022.10-win32/HiFi_220715_v3p/xtensa-elf/arch/lib/\libhandlers-board.a(exit.o)
 .debug_info    0x000057f2       0x26 C:/usr/xtensa/XtDevTools/install/builds/RI-2022.10-win32/HiFi_220715_v3p/xtensa-elf/arch/lib/\libhandlers-board.a(interrupt-table.o)
 .debug_info    0x00005818       0x26 C:/usr/xtensa/XtDevTools/install/builds/RI-2022.10-win32/HiFi_220715_v3p/xtensa-elf/arch/lib/\libhandlers-board.a(memerror-vector-S--vector-.o)
 .debug_info    0x0000583e       0x22 C:/usr/xtensa/XtDevTools/install/builds/RI-2022.10-win32/HiFi_220715_v3p/xtensa-elf/arch/lib/\libhandlers-board.a(user-vector.o)
 .debug_info    0x00005860       0x26 C:/usr/xtensa/XtDevTools/install/builds/RI-2022.10-win32/HiFi_220715_v3p/xtensa-elf/arch/lib/\libhandlers-board.a(int-lowpri-dispatcher.o)
 .debug_info    0x00005886       0x26 C:/usr/xtensa/XtDevTools/install/builds/RI-2022.10-win32/HiFi_220715_v3p/xtensa-elf/arch/lib/\libhandlers-board.a(window-vectors.o)
 .debug_info    0x000058ac       0x26 C:/usr/xtensa/XtDevTools/install/builds/RI-2022.10-win32/HiFi_220715_v3p/xtensa-elf/arch/lib/\libhandlers-board.a(int-vector-level2.o)
 .debug_info    0x000058d2       0x26 C:/usr/xtensa/XtDevTools/install/builds/RI-2022.10-win32/HiFi_220715_v3p/xtensa-elf/arch/lib/\libhandlers-board.a(int-handler-level2.o)
 .debug_info    0x000058f8       0x26 C:/usr/xtensa/XtDevTools/install/builds/RI-2022.10-win32/HiFi_220715_v3p/xtensa-elf/arch/lib/\libhandlers-board.a(exc-unhandled.o)
 .debug_info    0x0000591e       0x26 C:/usr/xtensa/XtDevTools/install/builds/RI-2022.10-win32/HiFi_220715_v3p/xtensa-elf/arch/lib/\libhandlers-board.a(exc-syscall-handler.o)
 .debug_info    0x00005944       0x26 C:/usr/xtensa/XtDevTools/install/builds/RI-2022.10-win32/HiFi_220715_v3p/xtensa-elf/arch/lib/\libhandlers-board.a(memerror-vector-S--handler-.o)
 .debug_info    0x0000596a       0x26 C:/usr/xtensa/XtDevTools/install/builds/RI-2022.10-win32/HiFi_220715_v3p/xtensa-elf/arch/lib/\libhandlers-board.a(exc-return.o)
 .debug_info    0x00005990       0x26 C:/usr/xtensa/XtDevTools/install/builds/RI-2022.10-win32/HiFi_220715_v3p/xtensa-elf/arch/lib/\libhal.a(cache_asm--dcache_all_writeback.o)
 .debug_info    0x000059b6       0x26 C:/usr/xtensa/XtDevTools/install/builds/RI-2022.10-win32/HiFi_220715_v3p/xtensa-elf/arch/lib/\libhal.a(cache_asm--dcache_region_writeback.o)
 .debug_info    0x000059dc       0x26 C:/usr/xtensa/XtDevTools/install/builds/RI-2022.10-win32/HiFi_220715_v3p/xtensa-elf/arch/lib/\libhal.a(cache_asm--dcache_region_writeback_inv.o)
 .debug_info    0x00005a02       0x26 C:/usr/xtensa/XtDevTools/install/builds/RI-2022.10-win32/HiFi_220715_v3p/xtensa-elf/arch/lib/\libhal.a(cache_asm--set_cache_prefetch_long.o)
 .debug_info    0x00005a28       0x5a C:/usr/xtensa/XtDevTools/install/builds/RI-2022.10-win32/HiFi_220715_v3p/xtensa-elf/arch/lib/\libhal.a(const--intlevel.o)

.debug_abbrev   0x00000000     0x15a6
 *(.debug_abbrev)
 .debug_abbrev  0x00000000       0x14 C:/usr/xtensa/XtDevTools/install/builds/RI-2022.10-win32/HiFi_220715_v3p/xtensa-elf/arch/lib/crt1-boards.o
 .debug_abbrev  0x00000014       0x93 D:/Skyworks/DTS/DTSX_VX_INT/SM4G_DTSVX_RT_CH_SWAP/SM4G_HIFI5Core0/bin/HiFi_220715_v3p_HiFi0/Debug/source/au_framework/src/c0_audiobufferhandle.o
 .debug_abbrev  0x000000a7       0x6b D:/Skyworks/DTS/DTSX_VX_INT/SM4G_DTSVX_RT_CH_SWAP/SM4G_HIFI5Core0/bin/HiFi_220715_v3p_HiFi0/Debug/source/au_framework/src/c0_audiopostprocess.o
 .debug_abbrev  0x00000112      0x2a5 D:/Skyworks/DTS/DTSX_VX_INT/SM4G_DTSVX_RT_CH_SWAP/SM4G_HIFI5Core0/bin/HiFi_220715_v3p_HiFi0/Debug/source/au_framework/src/c0_audioprocess.o
 .debug_abbrev  0x000003b7      0x26b D:/Skyworks/DTS/DTSX_VX_INT/SM4G_DTSVX_RT_CH_SWAP/SM4G_HIFI5Core0/bin/HiFi_220715_v3p_HiFi0/Debug/source/au_framework/src/c0_main.o
 .debug_abbrev  0x00000622      0x140 D:/Skyworks/DTS/DTSX_VX_INT/SM4G_DTSVX_RT_CH_SWAP/SM4G_HIFI5Core0/bin/HiFi_220715_v3p_HiFi0/Debug/source/au_framework/src/isr_handler.o
 .debug_abbrev  0x00000762      0x11b D:/Skyworks/DTS/DTSX_VX_INT/SM4G_DTSVX_RT_CH_SWAP/SM4G_HIFI5Core0/bin/HiFi_220715_v3p_HiFi0/Debug/source/au_framework/src/isr_receive.o
 .debug_abbrev  0x0000087d      0x16b D:/Skyworks/DTS/DTSX_VX_INT/SM4G_DTSVX_RT_CH_SWAP/SM4G_HIFI5Core0/bin/HiFi_220715_v3p_HiFi0/Debug/source/au_framework/src/isr_transmit.o
 .debug_abbrev  0x000009e8      0x198 D:/Skyworks/DTS/DTSX_VX_INT/SM4G_DTSVX_RT_CH_SWAP/SM4G_HIFI5Core0/bin/HiFi_220715_v3p_HiFi0/Debug/source/customerpostprocess/c0_customerpostprocess.o
 .debug_abbrev  0x00000b80      0x1c7 D:/Skyworks/DTS/DTSX_VX_INT/SM4G_DTSVX_RT_CH_SWAP/SM4G_HIFI5Core0/bin/HiFi_220715_v3p_HiFi0/Debug/source/kernel/target/hifi5/targetinit.o
 .debug_abbrev  0x00000d47       0xea D:/Skyworks/DTS/DTSX_VX_INT/SM4G_DTSVX_RT_CH_SWAP/SM4G_HIFI5Core0/bin/HiFi_220715_v3p_HiFi0/Debug/source/kernel/target/hifi5/vmem.o
 .debug_abbrev  0x00000e31       0x84 C:/usr/xtensa/XtDevTools/install/builds/RI-2022.10-win32/HiFi_220715_v3p/xtensa-elf/lib/\libc.a(memcmp.o)
 .debug_abbrev  0x00000eb5       0xa3 C:/usr/xtensa/XtDevTools/install/builds/RI-2022.10-win32/HiFi_220715_v3p/xtensa-elf/lib/\libc.a(clibrary_init.o)
 .debug_abbrev  0x00000f58       0xca C:/usr/xtensa/XtDevTools/install/builds/RI-2022.10-win32/HiFi_220715_v3p/xtensa-elf/lib/\libc.a(xtensa_exit.o)
 .debug_abbrev  0x00001022       0xcb C:/usr/xtensa/XtDevTools/install/builds/RI-2022.10-win32/HiFi_220715_v3p/xtensa-elf/lib/\libc.a(reent_bss.o)
 .debug_abbrev  0x000010ed       0x14 C:/usr/xtensa/XtDevTools/install/builds/RI-2022.10-win32/HiFi_220715_v3p/xtensa-elf/lib/\libc.a(memcpy.o)
 .debug_abbrev  0x00001101       0x14 C:/usr/xtensa/XtDevTools/install/builds/RI-2022.10-win32/HiFi_220715_v3p/xtensa-elf/lib/\libc.a(memset.o)
 .debug_abbrev  0x00001115       0x6f C:/usr/xtensa/XtDevTools/install/builds/RI-2022.10-win32/HiFi_220715_v3p/xtensa-elf/lib/\libc.a(xexit.o)
 .debug_abbrev  0x00001184       0x5d C:/usr/xtensa/XtDevTools/install/builds/RI-2022.10-win32/HiFi_220715_v3p/xtensa-elf/lib/\libc.a(environ.o)
 .debug_abbrev  0x000011e1       0x2c C:/usr/xtensa/XtDevTools/install/builds/RI-2022.10-win32/HiFi_220715_v3p/xtensa-elf/lib/\libgdbio.a(miniboard.o)
 .debug_abbrev  0x0000120d       0x14 C:/usr/xtensa/XtDevTools/install/builds/RI-2022.10-win32/HiFi_220715_v3p/xtensa-elf/arch/lib/\libhandler-reset.a(reset-vector.o)
 .debug_abbrev  0x00001221       0x14 C:/usr/xtensa/XtDevTools/install/builds/RI-2022.10-win32/HiFi_220715_v3p/xtensa-elf/arch/lib/\libhandlers-board.a(debug-vector.o)
 .debug_abbrev  0x00001235       0x14 C:/usr/xtensa/XtDevTools/install/builds/RI-2022.10-win32/HiFi_220715_v3p/xtensa-elf/arch/lib/\libhandlers-board.a(double-vector.o)
 .debug_abbrev  0x00001249       0x14 C:/usr/xtensa/XtDevTools/install/builds/RI-2022.10-win32/HiFi_220715_v3p/xtensa-elf/arch/lib/\libhandlers-board.a(kernel-vector.o)
 .debug_abbrev  0x0000125d       0x71 C:/usr/xtensa/XtDevTools/install/builds/RI-2022.10-win32/HiFi_220715_v3p/xtensa-elf/arch/lib/\libhandlers-board.a(xtos-interrupt-enable.o)
 .debug_abbrev  0x000012ce       0x71 C:/usr/xtensa/XtDevTools/install/builds/RI-2022.10-win32/HiFi_220715_v3p/xtensa-elf/arch/lib/\libhandlers-board.a(xtos-interrupt-disable.o)
 .debug_abbrev  0x0000133f       0xce C:/usr/xtensa/XtDevTools/install/builds/RI-2022.10-win32/HiFi_220715_v3p/xtensa-elf/arch/lib/\libhandlers-board.a(xtos-set-inthandler.o)
 .debug_abbrev  0x0000140d       0x14 C:/usr/xtensa/XtDevTools/install/builds/RI-2022.10-win32/HiFi_220715_v3p/xtensa-elf/arch/lib/\libhandlers-board.a(exit.o)
 .debug_abbrev  0x00001421       0x14 C:/usr/xtensa/XtDevTools/install/builds/RI-2022.10-win32/HiFi_220715_v3p/xtensa-elf/arch/lib/\libhandlers-board.a(interrupt-table.o)
 .debug_abbrev  0x00001435       0x14 C:/usr/xtensa/XtDevTools/install/builds/RI-2022.10-win32/HiFi_220715_v3p/xtensa-elf/arch/lib/\libhandlers-board.a(memerror-vector-S--vector-.o)
 .debug_abbrev  0x00001449       0x12 C:/usr/xtensa/XtDevTools/install/builds/RI-2022.10-win32/HiFi_220715_v3p/xtensa-elf/arch/lib/\libhandlers-board.a(user-vector.o)
 .debug_abbrev  0x0000145b       0x14 C:/usr/xtensa/XtDevTools/install/builds/RI-2022.10-win32/HiFi_220715_v3p/xtensa-elf/arch/lib/\libhandlers-board.a(int-lowpri-dispatcher.o)
 .debug_abbrev  0x0000146f       0x14 C:/usr/xtensa/XtDevTools/install/builds/RI-2022.10-win32/HiFi_220715_v3p/xtensa-elf/arch/lib/\libhandlers-board.a(window-vectors.o)
 .debug_abbrev  0x00001483       0x14 C:/usr/xtensa/XtDevTools/install/builds/RI-2022.10-win32/HiFi_220715_v3p/xtensa-elf/arch/lib/\libhandlers-board.a(int-vector-level2.o)
 .debug_abbrev  0x00001497       0x14 C:/usr/xtensa/XtDevTools/install/builds/RI-2022.10-win32/HiFi_220715_v3p/xtensa-elf/arch/lib/\libhandlers-board.a(int-handler-level2.o)
 .debug_abbrev  0x000014ab       0x14 C:/usr/xtensa/XtDevTools/install/builds/RI-2022.10-win32/HiFi_220715_v3p/xtensa-elf/arch/lib/\libhandlers-board.a(exc-unhandled.o)
 .debug_abbrev  0x000014bf       0x14 C:/usr/xtensa/XtDevTools/install/builds/RI-2022.10-win32/HiFi_220715_v3p/xtensa-elf/arch/lib/\libhandlers-board.a(exc-syscall-handler.o)
 .debug_abbrev  0x000014d3       0x14 C:/usr/xtensa/XtDevTools/install/builds/RI-2022.10-win32/HiFi_220715_v3p/xtensa-elf/arch/lib/\libhandlers-board.a(memerror-vector-S--handler-.o)
 .debug_abbrev  0x000014e7       0x14 C:/usr/xtensa/XtDevTools/install/builds/RI-2022.10-win32/HiFi_220715_v3p/xtensa-elf/arch/lib/\libhandlers-board.a(exc-return.o)
 .debug_abbrev  0x000014fb       0x14 C:/usr/xtensa/XtDevTools/install/builds/RI-2022.10-win32/HiFi_220715_v3p/xtensa-elf/arch/lib/\libhal.a(cache_asm--dcache_all_writeback.o)
 .debug_abbrev  0x0000150f       0x14 C:/usr/xtensa/XtDevTools/install/builds/RI-2022.10-win32/HiFi_220715_v3p/xtensa-elf/arch/lib/\libhal.a(cache_asm--dcache_region_writeback.o)
 .debug_abbrev  0x00001523       0x14 C:/usr/xtensa/XtDevTools/install/builds/RI-2022.10-win32/HiFi_220715_v3p/xtensa-elf/arch/lib/\libhal.a(cache_asm--dcache_region_writeback_inv.o)
 .debug_abbrev  0x00001537       0x14 C:/usr/xtensa/XtDevTools/install/builds/RI-2022.10-win32/HiFi_220715_v3p/xtensa-elf/arch/lib/\libhal.a(cache_asm--set_cache_prefetch_long.o)
 .debug_abbrev  0x0000154b       0x5b C:/usr/xtensa/XtDevTools/install/builds/RI-2022.10-win32/HiFi_220715_v3p/xtensa-elf/arch/lib/\libhal.a(const--intlevel.o)

.debug_line     0x00000000     0x75f1
 *(.debug_line)
 .debug_line    0x00000000      0x211 C:/usr/xtensa/XtDevTools/install/builds/RI-2022.10-win32/HiFi_220715_v3p/xtensa-elf/arch/lib/crt1-boards.o
 .debug_line    0x00000211      0x28f D:/Skyworks/DTS/DTSX_VX_INT/SM4G_DTSVX_RT_CH_SWAP/SM4G_HIFI5Core0/bin/HiFi_220715_v3p_HiFi0/Debug/source/au_framework/src/c0_audiobufferhandle.o
 .debug_line    0x000004a0      0x17c D:/Skyworks/DTS/DTSX_VX_INT/SM4G_DTSVX_RT_CH_SWAP/SM4G_HIFI5Core0/bin/HiFi_220715_v3p_HiFi0/Debug/source/au_framework/src/c0_audiopostprocess.o
 .debug_line    0x0000061c      0xf72 D:/Skyworks/DTS/DTSX_VX_INT/SM4G_DTSVX_RT_CH_SWAP/SM4G_HIFI5Core0/bin/HiFi_220715_v3p_HiFi0/Debug/source/au_framework/src/c0_audioprocess.o
 .debug_line    0x0000158e      0xfaa D:/Skyworks/DTS/DTSX_VX_INT/SM4G_DTSVX_RT_CH_SWAP/SM4G_HIFI5Core0/bin/HiFi_220715_v3p_HiFi0/Debug/source/au_framework/src/c0_main.o
 .debug_line    0x00002538      0x435 D:/Skyworks/DTS/DTSX_VX_INT/SM4G_DTSVX_RT_CH_SWAP/SM4G_HIFI5Core0/bin/HiFi_220715_v3p_HiFi0/Debug/source/au_framework/src/isr_handler.o
 .debug_line    0x0000296d      0x4f1 D:/Skyworks/DTS/DTSX_VX_INT/SM4G_DTSVX_RT_CH_SWAP/SM4G_HIFI5Core0/bin/HiFi_220715_v3p_HiFi0/Debug/source/au_framework/src/isr_receive.o
 .debug_line    0x00002e5e      0x8c2 D:/Skyworks/DTS/DTSX_VX_INT/SM4G_DTSVX_RT_CH_SWAP/SM4G_HIFI5Core0/bin/HiFi_220715_v3p_HiFi0/Debug/source/au_framework/src/isr_transmit.o
 .debug_line    0x00003720      0x4dc D:/Skyworks/DTS/DTSX_VX_INT/SM4G_DTSVX_RT_CH_SWAP/SM4G_HIFI5Core0/bin/HiFi_220715_v3p_HiFi0/Debug/source/customerpostprocess/c0_customerpostprocess.o
 .debug_line    0x00003bfc      0xc98 D:/Skyworks/DTS/DTSX_VX_INT/SM4G_DTSVX_RT_CH_SWAP/SM4G_HIFI5Core0/bin/HiFi_220715_v3p_HiFi0/Debug/source/kernel/target/hifi5/targetinit.o
 .debug_line    0x00004894      0x276 D:/Skyworks/DTS/DTSX_VX_INT/SM4G_DTSVX_RT_CH_SWAP/SM4G_HIFI5Core0/bin/HiFi_220715_v3p_HiFi0/Debug/source/kernel/target/hifi5/vmem.o
 .debug_line    0x00004b0a      0x118 C:/usr/xtensa/XtDevTools/install/builds/RI-2022.10-win32/HiFi_220715_v3p/xtensa-elf/lib/\libc.a(memcmp.o)
 .debug_line    0x00004c22       0xd4 C:/usr/xtensa/XtDevTools/install/builds/RI-2022.10-win32/HiFi_220715_v3p/xtensa-elf/lib/\libc.a(clibrary_init.o)
 .debug_line    0x00004cf6      0x1ed C:/usr/xtensa/XtDevTools/install/builds/RI-2022.10-win32/HiFi_220715_v3p/xtensa-elf/lib/\libc.a(xtensa_exit.o)
 .debug_line    0x00004ee3      0x1ad C:/usr/xtensa/XtDevTools/install/builds/RI-2022.10-win32/HiFi_220715_v3p/xtensa-elf/lib/\libc.a(reent_bss.o)
 .debug_line    0x00005090      0x26f C:/usr/xtensa/XtDevTools/install/builds/RI-2022.10-win32/HiFi_220715_v3p/xtensa-elf/lib/\libc.a(memcpy.o)
 .debug_line    0x000052ff      0x143 C:/usr/xtensa/XtDevTools/install/builds/RI-2022.10-win32/HiFi_220715_v3p/xtensa-elf/lib/\libc.a(memset.o)
 .debug_line    0x00005442       0x85 C:/usr/xtensa/XtDevTools/install/builds/RI-2022.10-win32/HiFi_220715_v3p/xtensa-elf/lib/\libc.a(xexit.o)
 .debug_line    0x000054c7       0x74 C:/usr/xtensa/XtDevTools/install/builds/RI-2022.10-win32/HiFi_220715_v3p/xtensa-elf/lib/\libc.a(environ.o)
 .debug_line    0x0000553b       0x93 C:/usr/xtensa/XtDevTools/install/builds/RI-2022.10-win32/HiFi_220715_v3p/xtensa-elf/lib/\libgdbio.a(miniboard.o)
 .debug_line    0x000055ce      0x135 C:/usr/xtensa/XtDevTools/install/builds/RI-2022.10-win32/HiFi_220715_v3p/xtensa-elf/arch/lib/\libhandler-reset.a(reset-vector.o)
 .debug_line    0x00005703       0xa3 C:/usr/xtensa/XtDevTools/install/builds/RI-2022.10-win32/HiFi_220715_v3p/xtensa-elf/arch/lib/\libhandlers-board.a(debug-vector.o)
 .debug_line    0x000057a6       0x93 C:/usr/xtensa/XtDevTools/install/builds/RI-2022.10-win32/HiFi_220715_v3p/xtensa-elf/arch/lib/\libhandlers-board.a(double-vector.o)
 .debug_line    0x00005839       0x99 C:/usr/xtensa/XtDevTools/install/builds/RI-2022.10-win32/HiFi_220715_v3p/xtensa-elf/arch/lib/\libhandlers-board.a(kernel-vector.o)
 .debug_line    0x000058d2      0x215 C:/usr/xtensa/XtDevTools/install/builds/RI-2022.10-win32/HiFi_220715_v3p/xtensa-elf/arch/lib/\libhandlers-board.a(xtos-interrupt-enable.o)
 .debug_line    0x00005ae7      0x20e C:/usr/xtensa/XtDevTools/install/builds/RI-2022.10-win32/HiFi_220715_v3p/xtensa-elf/arch/lib/\libhandlers-board.a(xtos-interrupt-disable.o)
 .debug_line    0x00005cf5      0x27d C:/usr/xtensa/XtDevTools/install/builds/RI-2022.10-win32/HiFi_220715_v3p/xtensa-elf/arch/lib/\libhandlers-board.a(xtos-set-inthandler.o)
 .debug_line    0x00005f72       0xc5 C:/usr/xtensa/XtDevTools/install/builds/RI-2022.10-win32/HiFi_220715_v3p/xtensa-elf/arch/lib/\libhandlers-board.a(exit.o)
 .debug_line    0x00006037       0xa1 C:/usr/xtensa/XtDevTools/install/builds/RI-2022.10-win32/HiFi_220715_v3p/xtensa-elf/arch/lib/\libhandlers-board.a(interrupt-table.o)
 .debug_line    0x000060d8      0x1df C:/usr/xtensa/XtDevTools/install/builds/RI-2022.10-win32/HiFi_220715_v3p/xtensa-elf/arch/lib/\libhandlers-board.a(memerror-vector-S--vector-.o)
 .debug_line    0x000062b7       0xd7 C:/usr/xtensa/XtDevTools/install/builds/RI-2022.10-win32/HiFi_220715_v3p/xtensa-elf/arch/lib/\libhandlers-board.a(user-vector.o)
 .debug_line    0x0000638e      0x26c C:/usr/xtensa/XtDevTools/install/builds/RI-2022.10-win32/HiFi_220715_v3p/xtensa-elf/arch/lib/\libhandlers-board.a(int-lowpri-dispatcher.o)
 .debug_line    0x000065fa      0x268 C:/usr/xtensa/XtDevTools/install/builds/RI-2022.10-win32/HiFi_220715_v3p/xtensa-elf/arch/lib/\libhandlers-board.a(window-vectors.o)
 .debug_line    0x00006862       0x95 C:/usr/xtensa/XtDevTools/install/builds/RI-2022.10-win32/HiFi_220715_v3p/xtensa-elf/arch/lib/\libhandlers-board.a(int-vector-level2.o)
 .debug_line    0x000068f7      0x331 C:/usr/xtensa/XtDevTools/install/builds/RI-2022.10-win32/HiFi_220715_v3p/xtensa-elf/arch/lib/\libhandlers-board.a(int-handler-level2.o)
 .debug_line    0x00006c28       0xaa C:/usr/xtensa/XtDevTools/install/builds/RI-2022.10-win32/HiFi_220715_v3p/xtensa-elf/arch/lib/\libhandlers-board.a(exc-unhandled.o)
 .debug_line    0x00006cd2      0x18f C:/usr/xtensa/XtDevTools/install/builds/RI-2022.10-win32/HiFi_220715_v3p/xtensa-elf/arch/lib/\libhandlers-board.a(exc-syscall-handler.o)
 .debug_line    0x00006e61      0x31d C:/usr/xtensa/XtDevTools/install/builds/RI-2022.10-win32/HiFi_220715_v3p/xtensa-elf/arch/lib/\libhandlers-board.a(memerror-vector-S--handler-.o)
 .debug_line    0x0000717e       0xc6 C:/usr/xtensa/XtDevTools/install/builds/RI-2022.10-win32/HiFi_220715_v3p/xtensa-elf/arch/lib/\libhandlers-board.a(exc-return.o)
 .debug_line    0x00007244       0x95 C:/usr/xtensa/XtDevTools/install/builds/RI-2022.10-win32/HiFi_220715_v3p/xtensa-elf/arch/lib/\libhal.a(cache_asm--dcache_all_writeback.o)
 .debug_line    0x000072d9       0x95 C:/usr/xtensa/XtDevTools/install/builds/RI-2022.10-win32/HiFi_220715_v3p/xtensa-elf/arch/lib/\libhal.a(cache_asm--dcache_region_writeback.o)
 .debug_line    0x0000736e       0x95 C:/usr/xtensa/XtDevTools/install/builds/RI-2022.10-win32/HiFi_220715_v3p/xtensa-elf/arch/lib/\libhal.a(cache_asm--dcache_region_writeback_inv.o)
 .debug_line    0x00007403       0xef C:/usr/xtensa/XtDevTools/install/builds/RI-2022.10-win32/HiFi_220715_v3p/xtensa-elf/arch/lib/\libhal.a(cache_asm--set_cache_prefetch_long.o)
 .debug_line    0x000074f2       0xff C:/usr/xtensa/XtDevTools/install/builds/RI-2022.10-win32/HiFi_220715_v3p/xtensa-elf/arch/lib/\libhal.a(const--intlevel.o)

.debug_frame    0x00000000      0x62c
 *(.debug_frame)
 .debug_frame   0x00000000       0x28 D:/Skyworks/DTS/DTSX_VX_INT/SM4G_DTSVX_RT_CH_SWAP/SM4G_HIFI5Core0/bin/HiFi_220715_v3p_HiFi0/Debug/source/au_framework/src/c0_audiobufferhandle.o
 .debug_frame   0x00000028       0x28 D:/Skyworks/DTS/DTSX_VX_INT/SM4G_DTSVX_RT_CH_SWAP/SM4G_HIFI5Core0/bin/HiFi_220715_v3p_HiFi0/Debug/source/au_framework/src/c0_audiopostprocess.o
 .debug_frame   0x00000050      0x12c D:/Skyworks/DTS/DTSX_VX_INT/SM4G_DTSVX_RT_CH_SWAP/SM4G_HIFI5Core0/bin/HiFi_220715_v3p_HiFi0/Debug/source/au_framework/src/c0_audioprocess.o
 .debug_frame   0x0000017c       0xc8 D:/Skyworks/DTS/DTSX_VX_INT/SM4G_DTSVX_RT_CH_SWAP/SM4G_HIFI5Core0/bin/HiFi_220715_v3p_HiFi0/Debug/source/au_framework/src/c0_main.o
 .debug_frame   0x00000244       0x50 D:/Skyworks/DTS/DTSX_VX_INT/SM4G_DTSVX_RT_CH_SWAP/SM4G_HIFI5Core0/bin/HiFi_220715_v3p_HiFi0/Debug/source/au_framework/src/isr_handler.o
 .debug_frame   0x00000294       0x3c D:/Skyworks/DTS/DTSX_VX_INT/SM4G_DTSVX_RT_CH_SWAP/SM4G_HIFI5Core0/bin/HiFi_220715_v3p_HiFi0/Debug/source/au_framework/src/isr_receive.o
 .debug_frame   0x000002d0       0x64 D:/Skyworks/DTS/DTSX_VX_INT/SM4G_DTSVX_RT_CH_SWAP/SM4G_HIFI5Core0/bin/HiFi_220715_v3p_HiFi0/Debug/source/au_framework/src/isr_transmit.o
 .debug_frame   0x00000334       0x78 D:/Skyworks/DTS/DTSX_VX_INT/SM4G_DTSVX_RT_CH_SWAP/SM4G_HIFI5Core0/bin/HiFi_220715_v3p_HiFi0/Debug/source/customerpostprocess/c0_customerpostprocess.o
 .debug_frame   0x000003ac       0xdc D:/Skyworks/DTS/DTSX_VX_INT/SM4G_DTSVX_RT_CH_SWAP/SM4G_HIFI5Core0/bin/HiFi_220715_v3p_HiFi0/Debug/source/kernel/target/hifi5/targetinit.o
 .debug_frame   0x00000488       0x3c D:/Skyworks/DTS/DTSX_VX_INT/SM4G_DTSVX_RT_CH_SWAP/SM4G_HIFI5Core0/bin/HiFi_220715_v3p_HiFi0/Debug/source/kernel/target/hifi5/vmem.o
 .debug_frame   0x000004c4       0x28 C:/usr/xtensa/XtDevTools/install/builds/RI-2022.10-win32/HiFi_220715_v3p/xtensa-elf/lib/\libc.a(memcmp.o)
 .debug_frame   0x000004ec       0x28 C:/usr/xtensa/XtDevTools/install/builds/RI-2022.10-win32/HiFi_220715_v3p/xtensa-elf/lib/\libc.a(clibrary_init.o)
 .debug_frame   0x00000514       0x28 C:/usr/xtensa/XtDevTools/install/builds/RI-2022.10-win32/HiFi_220715_v3p/xtensa-elf/lib/\libc.a(xtensa_exit.o)
 .debug_frame   0x0000053c       0x28 C:/usr/xtensa/XtDevTools/install/builds/RI-2022.10-win32/HiFi_220715_v3p/xtensa-elf/lib/\libc.a(reent_bss.o)
 .debug_frame   0x00000564       0x28 C:/usr/xtensa/XtDevTools/install/builds/RI-2022.10-win32/HiFi_220715_v3p/xtensa-elf/lib/\libc.a(xexit.o)
 .debug_frame   0x0000058c       0x28 C:/usr/xtensa/XtDevTools/install/builds/RI-2022.10-win32/HiFi_220715_v3p/xtensa-elf/lib/\libgdbio.a(miniboard.o)
 .debug_frame   0x000005b4       0x28 C:/usr/xtensa/XtDevTools/install/builds/RI-2022.10-win32/HiFi_220715_v3p/xtensa-elf/arch/lib/\libhandlers-board.a(xtos-interrupt-enable.o)
 .debug_frame   0x000005dc       0x28 C:/usr/xtensa/XtDevTools/install/builds/RI-2022.10-win32/HiFi_220715_v3p/xtensa-elf/arch/lib/\libhandlers-board.a(xtos-interrupt-disable.o)
 .debug_frame   0x00000604       0x28 C:/usr/xtensa/XtDevTools/install/builds/RI-2022.10-win32/HiFi_220715_v3p/xtensa-elf/arch/lib/\libhandlers-board.a(xtos-set-inthandler.o)

.debug_str      0x00000000     0x33ce
 *(.debug_str)
 .debug_str     0x00000000       0xbc C:/usr/xtensa/XtDevTools/install/builds/RI-2022.10-win32/HiFi_220715_v3p/xtensa-elf/arch/lib/crt1-boards.o
 .debug_str     0x000000bc      0x180 D:/Skyworks/DTS/DTSX_VX_INT/SM4G_DTSVX_RT_CH_SWAP/SM4G_HIFI5Core0/bin/HiFi_220715_v3p_HiFi0/Debug/source/au_framework/src/c0_audiobufferhandle.o
                                        0x19d (size before relaxing)
 .debug_str     0x0000023c       0x7f D:/Skyworks/DTS/DTSX_VX_INT/SM4G_DTSVX_RT_CH_SWAP/SM4G_HIFI5Core0/bin/HiFi_220715_v3p_HiFi0/Debug/source/au_framework/src/c0_audiopostprocess.o
                                        0x13b (size before relaxing)
 .debug_str     0x000002bb      0xc86 D:/Skyworks/DTS/DTSX_VX_INT/SM4G_DTSVX_RT_CH_SWAP/SM4G_HIFI5Core0/bin/HiFi_220715_v3p_HiFi0/Debug/source/au_framework/src/c0_audioprocess.o
                                       0x1002 (size before relaxing)
 .debug_str     0x00000f41      0x3a9 D:/Skyworks/DTS/DTSX_VX_INT/SM4G_DTSVX_RT_CH_SWAP/SM4G_HIFI5Core0/bin/HiFi_220715_v3p_HiFi0/Debug/source/au_framework/src/c0_main.o
                                        0xe0d (size before relaxing)
 .debug_str     0x000012ea      0x593 D:/Skyworks/DTS/DTSX_VX_INT/SM4G_DTSVX_RT_CH_SWAP/SM4G_HIFI5Core0/bin/HiFi_220715_v3p_HiFi0/Debug/source/au_framework/src/isr_handler.o
                                        0x783 (size before relaxing)
 .debug_str     0x0000187d       0xdf D:/Skyworks/DTS/DTSX_VX_INT/SM4G_DTSVX_RT_CH_SWAP/SM4G_HIFI5Core0/bin/HiFi_220715_v3p_HiFi0/Debug/source/au_framework/src/isr_receive.o
                                        0x1e5 (size before relaxing)
 .debug_str     0x0000195c      0x131 D:/Skyworks/DTS/DTSX_VX_INT/SM4G_DTSVX_RT_CH_SWAP/SM4G_HIFI5Core0/bin/HiFi_220715_v3p_HiFi0/Debug/source/au_framework/src/isr_transmit.o
                                        0x231 (size before relaxing)
 .debug_str     0x00001a8d      0x15b D:/Skyworks/DTS/DTSX_VX_INT/SM4G_DTSVX_RT_CH_SWAP/SM4G_HIFI5Core0/bin/HiFi_220715_v3p_HiFi0/Debug/source/customerpostprocess/c0_customerpostprocess.o
                                        0xc07 (size before relaxing)
 .debug_str     0x00001be8      0x7fb D:/Skyworks/DTS/DTSX_VX_INT/SM4G_DTSVX_RT_CH_SWAP/SM4G_HIFI5Core0/bin/HiFi_220715_v3p_HiFi0/Debug/source/kernel/target/hifi5/targetinit.o
                                        0xa02 (size before relaxing)
 .debug_str     0x000023e3      0x13b D:/Skyworks/DTS/DTSX_VX_INT/SM4G_DTSVX_RT_CH_SWAP/SM4G_HIFI5Core0/bin/HiFi_220715_v3p_HiFi0/Debug/source/kernel/target/hifi5/vmem.o
                                        0x2ae (size before relaxing)
 .debug_str     0x0000251e       0xcf C:/usr/xtensa/XtDevTools/install/builds/RI-2022.10-win32/HiFi_220715_v3p/xtensa-elf/lib/\libc.a(memcmp.o)
                                        0x118 (size before relaxing)
 .debug_str     0x000025ed       0xf0 C:/usr/xtensa/XtDevTools/install/builds/RI-2022.10-win32/HiFi_220715_v3p/xtensa-elf/lib/\libc.a(clibrary_init.o)
                                        0x135 (size before relaxing)
 .debug_str     0x000026dd       0x9e C:/usr/xtensa/XtDevTools/install/builds/RI-2022.10-win32/HiFi_220715_v3p/xtensa-elf/lib/\libc.a(xtensa_exit.o)
                                        0x158 (size before relaxing)
 .debug_str     0x0000277b      0x16b C:/usr/xtensa/XtDevTools/install/builds/RI-2022.10-win32/HiFi_220715_v3p/xtensa-elf/lib/\libc.a(reent_bss.o)
                                        0x240 (size before relaxing)
 .debug_str     0x000028e6       0x52 C:/usr/xtensa/XtDevTools/install/builds/RI-2022.10-win32/HiFi_220715_v3p/xtensa-elf/lib/\libc.a(memcpy.o)
                                         0xc5 (size before relaxing)
 .debug_str     0x00002938       0x52 C:/usr/xtensa/XtDevTools/install/builds/RI-2022.10-win32/HiFi_220715_v3p/xtensa-elf/lib/\libc.a(memset.o)
                                         0xc5 (size before relaxing)
 .debug_str     0x0000298a       0x5a C:/usr/xtensa/XtDevTools/install/builds/RI-2022.10-win32/HiFi_220715_v3p/xtensa-elf/lib/\libc.a(xexit.o)
                                         0xea (size before relaxing)
 .debug_str     0x000029e4       0x6b C:/usr/xtensa/XtDevTools/install/builds/RI-2022.10-win32/HiFi_220715_v3p/xtensa-elf/lib/\libc.a(environ.o)
                                        0x113 (size before relaxing)
 .debug_str     0x00002a4f       0xc5 C:/usr/xtensa/XtDevTools/install/builds/RI-2022.10-win32/HiFi_220715_v3p/xtensa-elf/lib/\libgdbio.a(miniboard.o)
                                         0xed (size before relaxing)
 .debug_str     0x00002b14       0x66 C:/usr/xtensa/XtDevTools/install/builds/RI-2022.10-win32/HiFi_220715_v3p/xtensa-elf/arch/lib/\libhandler-reset.a(reset-vector.o)
                                         0xce (size before relaxing)
 .debug_str     0x00002b7a       0x61 C:/usr/xtensa/XtDevTools/install/builds/RI-2022.10-win32/HiFi_220715_v3p/xtensa-elf/arch/lib/\libhandlers-board.a(debug-vector.o)
                                         0xc9 (size before relaxing)
 .debug_str     0x00002bdb       0x5d C:/usr/xtensa/XtDevTools/install/builds/RI-2022.10-win32/HiFi_220715_v3p/xtensa-elf/arch/lib/\libhandlers-board.a(double-vector.o)
                                         0xc5 (size before relaxing)
 .debug_str     0x00002c38       0x62 C:/usr/xtensa/XtDevTools/install/builds/RI-2022.10-win32/HiFi_220715_v3p/xtensa-elf/arch/lib/\libhandlers-board.a(kernel-vector.o)
                                         0xca (size before relaxing)
 .debug_str     0x00002c9a       0x8a C:/usr/xtensa/XtDevTools/install/builds/RI-2022.10-win32/HiFi_220715_v3p/xtensa-elf/arch/lib/\libhandlers-board.a(xtos-interrupt-enable.o)
                                        0x146 (size before relaxing)
 .debug_str     0x00002d24       0x7d C:/usr/xtensa/XtDevTools/install/builds/RI-2022.10-win32/HiFi_220715_v3p/xtensa-elf/arch/lib/\libhandlers-board.a(xtos-interrupt-disable.o)
                                        0x148 (size before relaxing)
 .debug_str     0x00002da1       0xcd C:/usr/xtensa/XtDevTools/install/builds/RI-2022.10-win32/HiFi_220715_v3p/xtensa-elf/arch/lib/\libhandlers-board.a(xtos-set-inthandler.o)
                                        0x199 (size before relaxing)
 .debug_str     0x00002e6e       0x59 C:/usr/xtensa/XtDevTools/install/builds/RI-2022.10-win32/HiFi_220715_v3p/xtensa-elf/arch/lib/\libhandlers-board.a(exit.o)
                                         0xc1 (size before relaxing)
 .debug_str     0x00002ec7       0x64 C:/usr/xtensa/XtDevTools/install/builds/RI-2022.10-win32/HiFi_220715_v3p/xtensa-elf/arch/lib/\libhandlers-board.a(interrupt-table.o)
                                         0xcc (size before relaxing)
 .debug_str     0x00002f2b       0x64 C:/usr/xtensa/XtDevTools/install/builds/RI-2022.10-win32/HiFi_220715_v3p/xtensa-elf/arch/lib/\libhandlers-board.a(memerror-vector-S--vector-.o)
                                         0xcc (size before relaxing)
 .debug_str     0x00002f8f       0x60 C:/usr/xtensa/XtDevTools/install/builds/RI-2022.10-win32/HiFi_220715_v3p/xtensa-elf/arch/lib/\libhandlers-board.a(user-vector.o)
                                         0xc8 (size before relaxing)
 .debug_str     0x00002fef       0x6a C:/usr/xtensa/XtDevTools/install/builds/RI-2022.10-win32/HiFi_220715_v3p/xtensa-elf/arch/lib/\libhandlers-board.a(int-lowpri-dispatcher.o)
                                         0xd2 (size before relaxing)
 .debug_str     0x00003059       0x63 C:/usr/xtensa/XtDevTools/install/builds/RI-2022.10-win32/HiFi_220715_v3p/xtensa-elf/arch/lib/\libhandlers-board.a(window-vectors.o)
                                         0xcb (size before relaxing)
 .debug_str     0x000030bc       0x5f C:/usr/xtensa/XtDevTools/install/builds/RI-2022.10-win32/HiFi_220715_v3p/xtensa-elf/arch/lib/\libhandlers-board.a(int-vector-level2.o)
                                         0xc7 (size before relaxing)
 .debug_str     0x0000311b       0x6b C:/usr/xtensa/XtDevTools/install/builds/RI-2022.10-win32/HiFi_220715_v3p/xtensa-elf/arch/lib/\libhandlers-board.a(int-handler-level2.o)
                                         0xd3 (size before relaxing)
 .debug_str     0x00003186       0x62 C:/usr/xtensa/XtDevTools/install/builds/RI-2022.10-win32/HiFi_220715_v3p/xtensa-elf/arch/lib/\libhandlers-board.a(exc-unhandled.o)
                                         0xca (size before relaxing)
 .debug_str     0x000031e8       0x68 C:/usr/xtensa/XtDevTools/install/builds/RI-2022.10-win32/HiFi_220715_v3p/xtensa-elf/arch/lib/\libhandlers-board.a(exc-syscall-handler.o)
                                         0xd0 (size before relaxing)
 .debug_str     0x00003250       0xcc C:/usr/xtensa/XtDevTools/install/builds/RI-2022.10-win32/HiFi_220715_v3p/xtensa-elf/arch/lib/\libhandlers-board.a(memerror-vector-S--handler-.o)
 .debug_str     0x00003250       0x5f C:/usr/xtensa/XtDevTools/install/builds/RI-2022.10-win32/HiFi_220715_v3p/xtensa-elf/arch/lib/\libhandlers-board.a(exc-return.o)
                                         0xc7 (size before relaxing)
 .debug_str     0x000032af       0xb3 C:/usr/xtensa/XtDevTools/install/builds/RI-2022.10-win32/HiFi_220715_v3p/xtensa-elf/arch/lib/\libhal.a(cache_asm--dcache_all_writeback.o)
                                         0xbf (size before relaxing)
 .debug_str     0x00003362       0xbf C:/usr/xtensa/XtDevTools/install/builds/RI-2022.10-win32/HiFi_220715_v3p/xtensa-elf/arch/lib/\libhal.a(cache_asm--dcache_region_writeback.o)
 .debug_str     0x00003362       0xbf C:/usr/xtensa/XtDevTools/install/builds/RI-2022.10-win32/HiFi_220715_v3p/xtensa-elf/arch/lib/\libhal.a(cache_asm--dcache_region_writeback_inv.o)
 .debug_str     0x00003362       0xbf C:/usr/xtensa/XtDevTools/install/builds/RI-2022.10-win32/HiFi_220715_v3p/xtensa-elf/arch/lib/\libhal.a(cache_asm--set_cache_prefetch_long.o)
 .debug_str     0x00003362       0x6c C:/usr/xtensa/XtDevTools/install/builds/RI-2022.10-win32/HiFi_220715_v3p/xtensa-elf/arch/lib/\libhal.a(const--intlevel.o)
                                        0x112 (size before relaxing)

.debug_loc      0x00000000     0x1159
 *(.debug_loc)
 .debug_loc     0x00000000      0x245 D:/Skyworks/DTS/DTSX_VX_INT/SM4G_DTSVX_RT_CH_SWAP/SM4G_HIFI5Core0/bin/HiFi_220715_v3p_HiFi0/Debug/source/au_framework/src/c0_audiobufferhandle.o
 .debug_loc     0x00000245       0x20 D:/Skyworks/DTS/DTSX_VX_INT/SM4G_DTSVX_RT_CH_SWAP/SM4G_HIFI5Core0/bin/HiFi_220715_v3p_HiFi0/Debug/source/au_framework/src/c0_audiopostprocess.o
 .debug_loc     0x00000265      0x5cf D:/Skyworks/DTS/DTSX_VX_INT/SM4G_DTSVX_RT_CH_SWAP/SM4G_HIFI5Core0/bin/HiFi_220715_v3p_HiFi0/Debug/source/au_framework/src/c0_audioprocess.o
 .debug_loc     0x00000834      0x174 D:/Skyworks/DTS/DTSX_VX_INT/SM4G_DTSVX_RT_CH_SWAP/SM4G_HIFI5Core0/bin/HiFi_220715_v3p_HiFi0/Debug/source/au_framework/src/c0_main.o
 .debug_loc     0x000009a8       0xad D:/Skyworks/DTS/DTSX_VX_INT/SM4G_DTSVX_RT_CH_SWAP/SM4G_HIFI5Core0/bin/HiFi_220715_v3p_HiFi0/Debug/source/au_framework/src/isr_handler.o
 .debug_loc     0x00000a55       0xea D:/Skyworks/DTS/DTSX_VX_INT/SM4G_DTSVX_RT_CH_SWAP/SM4G_HIFI5Core0/bin/HiFi_220715_v3p_HiFi0/Debug/source/au_framework/src/isr_receive.o
 .debug_loc     0x00000b3f      0x2fe D:/Skyworks/DTS/DTSX_VX_INT/SM4G_DTSVX_RT_CH_SWAP/SM4G_HIFI5Core0/bin/HiFi_220715_v3p_HiFi0/Debug/source/au_framework/src/isr_transmit.o
 .debug_loc     0x00000e3d       0x4c D:/Skyworks/DTS/DTSX_VX_INT/SM4G_DTSVX_RT_CH_SWAP/SM4G_HIFI5Core0/bin/HiFi_220715_v3p_HiFi0/Debug/source/customerpostprocess/c0_customerpostprocess.o
 .debug_loc     0x00000e89       0x51 D:/Skyworks/DTS/DTSX_VX_INT/SM4G_DTSVX_RT_CH_SWAP/SM4G_HIFI5Core0/bin/HiFi_220715_v3p_HiFi0/Debug/source/kernel/target/hifi5/targetinit.o
 .debug_loc     0x00000eda       0xe4 D:/Skyworks/DTS/DTSX_VX_INT/SM4G_DTSVX_RT_CH_SWAP/SM4G_HIFI5Core0/bin/HiFi_220715_v3p_HiFi0/Debug/source/kernel/target/hifi5/vmem.o
 .debug_loc     0x00000fbe       0x80 C:/usr/xtensa/XtDevTools/install/builds/RI-2022.10-win32/HiFi_220715_v3p/xtensa-elf/lib/\libc.a(memcmp.o)
 .debug_loc     0x0000103e       0x26 C:/usr/xtensa/XtDevTools/install/builds/RI-2022.10-win32/HiFi_220715_v3p/xtensa-elf/lib/\libc.a(clibrary_init.o)
 .debug_loc     0x00001064       0x1e C:/usr/xtensa/XtDevTools/install/builds/RI-2022.10-win32/HiFi_220715_v3p/xtensa-elf/lib/\libc.a(xexit.o)
 .debug_loc     0x00001082       0x4f C:/usr/xtensa/XtDevTools/install/builds/RI-2022.10-win32/HiFi_220715_v3p/xtensa-elf/arch/lib/\libhandlers-board.a(xtos-interrupt-enable.o)
 .debug_loc     0x000010d1       0x44 C:/usr/xtensa/XtDevTools/install/builds/RI-2022.10-win32/HiFi_220715_v3p/xtensa-elf/arch/lib/\libhandlers-board.a(xtos-interrupt-disable.o)
 .debug_loc     0x00001115       0x44 C:/usr/xtensa/XtDevTools/install/builds/RI-2022.10-win32/HiFi_220715_v3p/xtensa-elf/arch/lib/\libhandlers-board.a(xtos-set-inthandler.o)

.debug_macinfo
 *(.debug_macinfo)

.debug_weaknames
 *(.debug_weaknames)

.debug_funcnames
 *(.debug_funcnames)

.debug_typenames
 *(.debug_typenames)

.debug_varnames
 *(.debug_varnames)

.xt.insn
 *(.xt.insn)
 *(.gnu.linkonce.x.*)

.xt.prop        0x00000000     0x3d14
 *(.xt.prop)
 .xt.prop       0x00000000       0xb4 C:/usr/xtensa/XtDevTools/install/builds/RI-2022.10-win32/HiFi_220715_v3p/xtensa-elf/arch/lib/crt1-boards.o
 .xt.prop       0x000000b4       0x30 C:/usr/xtensa/XtDevTools/install/builds/RI-2022.10-win32/HiFi_220715_v3p/xtensa-elf/lib/xcc/crti.o
 .xt.prop       0x000000e4       0xd8 C:/usr/xtensa/XtDevTools/install/builds/RI-2022.10-win32/HiFi_220715_v3p/xtensa-elf/lib/xcc/crtbegin.o
 .xt.prop       0x000001bc      0x12c D:/Skyworks/DTS/DTSX_VX_INT/SM4G_DTSVX_RT_CH_SWAP/SM4G_HIFI5Core0/bin/HiFi_220715_v3p_HiFi0/Debug/source/au_framework/src/c0_audiobufferhandle.o
                                        0x138 (size before relaxing)
 .xt.prop       0x000002e8       0x48 D:/Skyworks/DTS/DTSX_VX_INT/SM4G_DTSVX_RT_CH_SWAP/SM4G_HIFI5Core0/bin/HiFi_220715_v3p_HiFi0/Debug/source/au_framework/src/c0_audiopostprocess.o
 .xt.prop       0x00000330      0x408 D:/Skyworks/DTS/DTSX_VX_INT/SM4G_DTSVX_RT_CH_SWAP/SM4G_HIFI5Core0/bin/HiFi_220715_v3p_HiFi0/Debug/source/au_framework/src/c0_audioprocess.o
 .xt.prop       0x00000738      0x4a4 D:/Skyworks/DTS/DTSX_VX_INT/SM4G_DTSVX_RT_CH_SWAP/SM4G_HIFI5Core0/bin/HiFi_220715_v3p_HiFi0/Debug/source/au_framework/src/c0_main.o
 .xt.prop       0x00000bdc      0x1e0 D:/Skyworks/DTS/DTSX_VX_INT/SM4G_DTSVX_RT_CH_SWAP/SM4G_HIFI5Core0/bin/HiFi_220715_v3p_HiFi0/Debug/source/au_framework/src/isr_handler.o
 .xt.prop       0x00000dbc       0x78 D:/Skyworks/DTS/DTSX_VX_INT/SM4G_DTSVX_RT_CH_SWAP/SM4G_HIFI5Core0/bin/HiFi_220715_v3p_HiFi0/Debug/source/au_framework/src/isr_receive.o
 .xt.prop       0x00000e34      0x12c D:/Skyworks/DTS/DTSX_VX_INT/SM4G_DTSVX_RT_CH_SWAP/SM4G_HIFI5Core0/bin/HiFi_220715_v3p_HiFi0/Debug/source/au_framework/src/isr_transmit.o
                                        0x138 (size before relaxing)
 .xt.prop       0x00000f60       0x90 D:/Skyworks/DTS/DTSX_VX_INT/SM4G_DTSVX_RT_CH_SWAP/SM4G_HIFI5Core0/bin/HiFi_220715_v3p_HiFi0/Debug/source/customerpostprocess/c0_customerpostprocess.o
 .xt.prop       0x00000ff0      0x168 D:/Skyworks/DTS/DTSX_VX_INT/SM4G_DTSVX_RT_CH_SWAP/SM4G_HIFI5Core0/bin/HiFi_220715_v3p_HiFi0/Debug/source/kernel/target/hifi5/targetinit.o
                                        0x174 (size before relaxing)
 .xt.prop       0x00001158       0xc0 D:/Skyworks/DTS/DTSX_VX_INT/SM4G_DTSVX_RT_CH_SWAP/SM4G_HIFI5Core0/bin/HiFi_220715_v3p_HiFi0/Debug/source/kernel/target/hifi5/vmem.o
                                         0xcc (size before relaxing)
 .xt.prop       0x00001218      0x198 D:/Skyworks/DTS/DTSX_VX_INT/SM4G_DTSVX_RT_CH_SWAP/libdrv\libdrv_HIFI0.a(bufmgr.o)
                                        0x1a4 (size before relaxing)
 .xt.prop       0x000013b0      0x4e0 D:/Skyworks/DTS/DTSX_VX_INT/SM4G_DTSVX_RT_CH_SWAP/libdrv\libdrv_HIFI0.a(clkrst.o)
                                        0x4ec (size before relaxing)
 .xt.prop       0x00001890      0x348 D:/Skyworks/DTS/DTSX_VX_INT/SM4G_DTSVX_RT_CH_SWAP/libdrv\libdrv_HIFI0.a(i2srx.o)
 .xt.prop       0x00001bd8      0x348 D:/Skyworks/DTS/DTSX_VX_INT/SM4G_DTSVX_RT_CH_SWAP/libdrv\libdrv_HIFI0.a(i2stx.o)
 .xt.prop       0x00001f20      0x828 D:/Skyworks/DTS/DTSX_VX_INT/SM4G_DTSVX_RT_CH_SWAP/libdrv\libdrv_HIFI0.a(int.o)
                                        0x87c (size before relaxing)
 .xt.prop       0x00002748      0x3a8 D:/Skyworks/DTS/DTSX_VX_INT/SM4G_DTSVX_RT_CH_SWAP/libdrv\libdrv_HIFI0.a(mutex.o)
                                        0x3c0 (size before relaxing)
 .xt.prop       0x00002af0       0xc0 D:/Skyworks/DTS/DTSX_VX_INT/SM4G_DTSVX_RT_CH_SWAP/libdrv\libdrv_HIFI0.a(padcfg.o)
 .xt.prop       0x00002bb0      0x264 D:/Skyworks/DTS/DTSX_VX_INT/SM4G_DTSVX_RT_CH_SWAP/libdrv\libdrv_HIFI0.a(pinmux.o)
 .xt.prop       0x00002e14      0x270 D:/Skyworks/DTS/DTSX_VX_INT/SM4G_DTSVX_RT_CH_SWAP/libdrv\libdrv_HIFI0.a(pll.o)
 .xt.prop       0x00003084       0x90 D:/Skyworks/DTS/DTSX_VX_INT/SM4G_DTSVX_RT_CH_SWAP/libdrv\libdrv_HIFI0.a(frt.o)
 .xt.prop       0x00003114       0x48 C:/usr/xtensa/XtDevTools/install/builds/RI-2022.10-win32/HiFi_220715_v3p/xtensa-elf/lib/\libc.a(memcmp.o)
                                         0x54 (size before relaxing)
 .xt.prop       0x0000315c       0x48 C:/usr/xtensa/XtDevTools/install/builds/RI-2022.10-win32/HiFi_220715_v3p/xtensa-elf/lib/\libc.a(clibrary_init.o)
 .xt.prop       0x000031a4       0x6c C:/usr/xtensa/XtDevTools/install/builds/RI-2022.10-win32/HiFi_220715_v3p/xtensa-elf/lib/\libc.a(xtensa_exit.o)
                                         0x78 (size before relaxing)
 .xt.prop       0x00003210       0x3c C:/usr/xtensa/XtDevTools/install/builds/RI-2022.10-win32/HiFi_220715_v3p/xtensa-elf/lib/\libc.a(reent_bss.o)
 .xt.prop       0x0000324c      0x144 C:/usr/xtensa/XtDevTools/install/builds/RI-2022.10-win32/HiFi_220715_v3p/xtensa-elf/lib/\libc.a(memcpy.o)
                                        0x150 (size before relaxing)
 .xt.prop       0x00003390       0xa8 C:/usr/xtensa/XtDevTools/install/builds/RI-2022.10-win32/HiFi_220715_v3p/xtensa-elf/lib/\libc.a(memset.o)
                                         0xb4 (size before relaxing)
 .xt.prop       0x00003438       0x18 C:/usr/xtensa/XtDevTools/install/builds/RI-2022.10-win32/HiFi_220715_v3p/xtensa-elf/lib/\libc.a(xexit.o)
                                         0x24 (size before relaxing)
 .xt.prop       0x00003450        0x0 C:/usr/xtensa/XtDevTools/install/builds/RI-2022.10-win32/HiFi_220715_v3p/xtensa-elf/lib/\libc.a(environ.o)
                                          0xc (size before relaxing)
 .xt.prop       0x00003450       0x24 C:/usr/xtensa/XtDevTools/install/builds/RI-2022.10-win32/HiFi_220715_v3p/xtensa-elf/lib/\libgdbio.a(miniboard.o)
 .xt.prop       0x00003474       0xcc C:/usr/xtensa/XtDevTools/install/builds/RI-2022.10-win32/HiFi_220715_v3p/xtensa-elf/arch/lib/\libhandler-reset.a(reset-vector.o)
 .xt.prop       0x00003540       0x24 C:/usr/xtensa/XtDevTools/install/builds/RI-2022.10-win32/HiFi_220715_v3p/xtensa-elf/arch/lib/\libhandlers-board.a(debug-vector.o)
 .xt.prop       0x00003564       0x18 C:/usr/xtensa/XtDevTools/install/builds/RI-2022.10-win32/HiFi_220715_v3p/xtensa-elf/arch/lib/\libhandlers-board.a(double-vector.o)
 .xt.prop       0x0000357c       0x18 C:/usr/xtensa/XtDevTools/install/builds/RI-2022.10-win32/HiFi_220715_v3p/xtensa-elf/arch/lib/\libhandlers-board.a(kernel-vector.o)
 .xt.prop       0x00003594       0x3c C:/usr/xtensa/XtDevTools/install/builds/RI-2022.10-win32/HiFi_220715_v3p/xtensa-elf/arch/lib/\libhandlers-board.a(xtos-interrupt-enable.o)
 .xt.prop       0x000035d0       0x30 C:/usr/xtensa/XtDevTools/install/builds/RI-2022.10-win32/HiFi_220715_v3p/xtensa-elf/arch/lib/\libhandlers-board.a(xtos-interrupt-disable.o)
                                         0x3c (size before relaxing)
 .xt.prop       0x00003600       0x60 C:/usr/xtensa/XtDevTools/install/builds/RI-2022.10-win32/HiFi_220715_v3p/xtensa-elf/arch/lib/\libhandlers-board.a(xtos-set-inthandler.o)
 .xt.prop       0x00003660       0x30 C:/usr/xtensa/XtDevTools/install/builds/RI-2022.10-win32/HiFi_220715_v3p/xtensa-elf/arch/lib/\libhandlers-board.a(exit.o)
                                         0x3c (size before relaxing)
 .xt.prop       0x00003690       0x30 C:/usr/xtensa/XtDevTools/install/builds/RI-2022.10-win32/HiFi_220715_v3p/xtensa-elf/arch/lib/\libhandlers-board.a(interrupt-table.o)
 .xt.prop       0x000036c0       0xf0 C:/usr/xtensa/XtDevTools/install/builds/RI-2022.10-win32/HiFi_220715_v3p/xtensa-elf/arch/lib/\libhandlers-board.a(memerror-vector-S--vector-.o)
 .xt.prop       0x000037b0       0x48 C:/usr/xtensa/XtDevTools/install/builds/RI-2022.10-win32/HiFi_220715_v3p/xtensa-elf/arch/lib/\libhandlers-board.a(user-vector.o)
 .xt.prop       0x000037f8       0xc0 C:/usr/xtensa/XtDevTools/install/builds/RI-2022.10-win32/HiFi_220715_v3p/xtensa-elf/arch/lib/\libhandlers-board.a(int-lowpri-dispatcher.o)
 .xt.prop       0x000038b8       0xc0 C:/usr/xtensa/XtDevTools/install/builds/RI-2022.10-win32/HiFi_220715_v3p/xtensa-elf/arch/lib/\libhandlers-board.a(window-vectors.o)
                                         0xfc (size before relaxing)
 .xt.prop       0x00003978       0x18 C:/usr/xtensa/XtDevTools/install/builds/RI-2022.10-win32/HiFi_220715_v3p/xtensa-elf/arch/lib/\libhandlers-board.a(int-vector-level2.o)
 .xt.prop       0x00003990       0x3c C:/usr/xtensa/XtDevTools/install/builds/RI-2022.10-win32/HiFi_220715_v3p/xtensa-elf/arch/lib/\libhandlers-board.a(int-handler-level2.o)
 .xt.prop       0x000039cc       0x18 C:/usr/xtensa/XtDevTools/install/builds/RI-2022.10-win32/HiFi_220715_v3p/xtensa-elf/arch/lib/\libhandlers-board.a(exc-unhandled.o)
 .xt.prop       0x000039e4       0x90 C:/usr/xtensa/XtDevTools/install/builds/RI-2022.10-win32/HiFi_220715_v3p/xtensa-elf/arch/lib/\libhandlers-board.a(exc-syscall-handler.o)
 .xt.prop       0x00003a74      0x12c C:/usr/xtensa/XtDevTools/install/builds/RI-2022.10-win32/HiFi_220715_v3p/xtensa-elf/arch/lib/\libhandlers-board.a(memerror-vector-S--handler-.o)
 .xt.prop       0x00003ba0       0x18 C:/usr/xtensa/XtDevTools/install/builds/RI-2022.10-win32/HiFi_220715_v3p/xtensa-elf/arch/lib/\libhandlers-board.a(exc-return.o)
 .xt.prop       0x00003bb8       0x30 C:/usr/xtensa/XtDevTools/install/builds/RI-2022.10-win32/HiFi_220715_v3p/xtensa-elf/arch/lib/\libhal.a(cache_asm--dcache_all_writeback.o)
                                         0x3c (size before relaxing)
 .xt.prop       0x00003be8       0x30 C:/usr/xtensa/XtDevTools/install/builds/RI-2022.10-win32/HiFi_220715_v3p/xtensa-elf/arch/lib/\libhal.a(cache_asm--dcache_region_writeback.o)
                                         0x3c (size before relaxing)
 .xt.prop       0x00003c18       0x30 C:/usr/xtensa/XtDevTools/install/builds/RI-2022.10-win32/HiFi_220715_v3p/xtensa-elf/arch/lib/\libhal.a(cache_asm--dcache_region_writeback_inv.o)
                                         0x3c (size before relaxing)
 .xt.prop       0x00003c48       0x3c C:/usr/xtensa/XtDevTools/install/builds/RI-2022.10-win32/HiFi_220715_v3p/xtensa-elf/arch/lib/\libhal.a(cache_asm--set_cache_prefetch_long.o)
 .xt.prop       0x00003c84       0x60 C:/usr/xtensa/XtDevTools/install/builds/RI-2022.10-win32/HiFi_220715_v3p/xtensa-elf/lib/xcc/crtend.o
 .xt.prop       0x00003ce4       0x30 C:/usr/xtensa/XtDevTools/install/builds/RI-2022.10-win32/HiFi_220715_v3p/xtensa-elf/lib/xcc/crtn.o
 *(.xt.prop.*)
 *(.gnu.linkonce.prop.*)

.xt.lit         0x00000000      0x150
 *(.xt.lit)
 .xt.lit        0x00000000        0x8 C:/usr/xtensa/XtDevTools/install/builds/RI-2022.10-win32/HiFi_220715_v3p/xtensa-elf/arch/lib/crt1-boards.o
 .xt.lit        0x00000008       0x18 C:/usr/xtensa/XtDevTools/install/builds/RI-2022.10-win32/HiFi_220715_v3p/xtensa-elf/lib/xcc/crtbegin.o
 .xt.lit        0x00000020        0x8 D:/Skyworks/DTS/DTSX_VX_INT/SM4G_DTSVX_RT_CH_SWAP/SM4G_HIFI5Core0/bin/HiFi_220715_v3p_HiFi0/Debug/source/au_framework/src/c0_audiopostprocess.o
 .xt.lit        0x00000028        0x8 D:/Skyworks/DTS/DTSX_VX_INT/SM4G_DTSVX_RT_CH_SWAP/SM4G_HIFI5Core0/bin/HiFi_220715_v3p_HiFi0/Debug/source/au_framework/src/c0_audioprocess.o
 .xt.lit        0x00000030       0x18 D:/Skyworks/DTS/DTSX_VX_INT/SM4G_DTSVX_RT_CH_SWAP/SM4G_HIFI5Core0/bin/HiFi_220715_v3p_HiFi0/Debug/source/au_framework/src/c0_main.o
 .xt.lit        0x00000048       0x10 D:/Skyworks/DTS/DTSX_VX_INT/SM4G_DTSVX_RT_CH_SWAP/SM4G_HIFI5Core0/bin/HiFi_220715_v3p_HiFi0/Debug/source/au_framework/src/isr_handler.o
 .xt.lit        0x00000058        0x8 D:/Skyworks/DTS/DTSX_VX_INT/SM4G_DTSVX_RT_CH_SWAP/SM4G_HIFI5Core0/bin/HiFi_220715_v3p_HiFi0/Debug/source/au_framework/src/isr_receive.o
 .xt.lit        0x00000060        0x0 D:/Skyworks/DTS/DTSX_VX_INT/SM4G_DTSVX_RT_CH_SWAP/SM4G_HIFI5Core0/bin/HiFi_220715_v3p_HiFi0/Debug/source/au_framework/src/isr_transmit.o
                                          0x8 (size before relaxing)
 .xt.lit        0x00000060        0x8 D:/Skyworks/DTS/DTSX_VX_INT/SM4G_DTSVX_RT_CH_SWAP/SM4G_HIFI5Core0/bin/HiFi_220715_v3p_HiFi0/Debug/source/customerpostprocess/c0_customerpostprocess.o
 .xt.lit        0x00000068       0x10 D:/Skyworks/DTS/DTSX_VX_INT/SM4G_DTSVX_RT_CH_SWAP/SM4G_HIFI5Core0/bin/HiFi_220715_v3p_HiFi0/Debug/source/kernel/target/hifi5/targetinit.o
 .xt.lit        0x00000078        0x8 D:/Skyworks/DTS/DTSX_VX_INT/SM4G_DTSVX_RT_CH_SWAP/SM4G_HIFI5Core0/bin/HiFi_220715_v3p_HiFi0/Debug/source/kernel/target/hifi5/vmem.o
 .xt.lit        0x00000080        0x8 D:/Skyworks/DTS/DTSX_VX_INT/SM4G_DTSVX_RT_CH_SWAP/libdrv\libdrv_HIFI0.a(bufmgr.o)
 .xt.lit        0x00000088        0x8 D:/Skyworks/DTS/DTSX_VX_INT/SM4G_DTSVX_RT_CH_SWAP/libdrv\libdrv_HIFI0.a(clkrst.o)
 .xt.lit        0x00000090        0x8 D:/Skyworks/DTS/DTSX_VX_INT/SM4G_DTSVX_RT_CH_SWAP/libdrv\libdrv_HIFI0.a(i2srx.o)
 .xt.lit        0x00000098        0x8 D:/Skyworks/DTS/DTSX_VX_INT/SM4G_DTSVX_RT_CH_SWAP/libdrv\libdrv_HIFI0.a(i2stx.o)
 .xt.lit        0x000000a0        0x8 D:/Skyworks/DTS/DTSX_VX_INT/SM4G_DTSVX_RT_CH_SWAP/libdrv\libdrv_HIFI0.a(int.o)
 .xt.lit        0x000000a8        0x8 D:/Skyworks/DTS/DTSX_VX_INT/SM4G_DTSVX_RT_CH_SWAP/libdrv\libdrv_HIFI0.a(mutex.o)
 .xt.lit        0x000000b0        0x8 D:/Skyworks/DTS/DTSX_VX_INT/SM4G_DTSVX_RT_CH_SWAP/libdrv\libdrv_HIFI0.a(padcfg.o)
 .xt.lit        0x000000b8        0x8 D:/Skyworks/DTS/DTSX_VX_INT/SM4G_DTSVX_RT_CH_SWAP/libdrv\libdrv_HIFI0.a(pinmux.o)
 .xt.lit        0x000000c0        0x8 D:/Skyworks/DTS/DTSX_VX_INT/SM4G_DTSVX_RT_CH_SWAP/libdrv\libdrv_HIFI0.a(pll.o)
 .xt.lit        0x000000c8        0x8 D:/Skyworks/DTS/DTSX_VX_INT/SM4G_DTSVX_RT_CH_SWAP/libdrv\libdrv_HIFI0.a(frt.o)
 .xt.lit        0x000000d0        0x8 C:/usr/xtensa/XtDevTools/install/builds/RI-2022.10-win32/HiFi_220715_v3p/xtensa-elf/lib/\libc.a(clibrary_init.o)
 .xt.lit        0x000000d8        0x8 C:/usr/xtensa/XtDevTools/install/builds/RI-2022.10-win32/HiFi_220715_v3p/xtensa-elf/lib/\libc.a(xtensa_exit.o)
 .xt.lit        0x000000e0        0x8 C:/usr/xtensa/XtDevTools/install/builds/RI-2022.10-win32/HiFi_220715_v3p/xtensa-elf/lib/\libc.a(reent_bss.o)
 .xt.lit        0x000000e8        0x0 C:/usr/xtensa/XtDevTools/install/builds/RI-2022.10-win32/HiFi_220715_v3p/xtensa-elf/lib/\libc.a(xexit.o)
                                          0x8 (size before relaxing)
 .xt.lit        0x000000e8        0x8 C:/usr/xtensa/XtDevTools/install/builds/RI-2022.10-win32/HiFi_220715_v3p/xtensa-elf/arch/lib/\libhandler-reset.a(reset-vector.o)
 .xt.lit        0x000000f0        0x8 C:/usr/xtensa/XtDevTools/install/builds/RI-2022.10-win32/HiFi_220715_v3p/xtensa-elf/arch/lib/\libhandlers-board.a(xtos-interrupt-enable.o)
 .xt.lit        0x000000f8        0x0 C:/usr/xtensa/XtDevTools/install/builds/RI-2022.10-win32/HiFi_220715_v3p/xtensa-elf/arch/lib/\libhandlers-board.a(xtos-interrupt-disable.o)
                                          0x8 (size before relaxing)
 .xt.lit        0x000000f8        0x8 C:/usr/xtensa/XtDevTools/install/builds/RI-2022.10-win32/HiFi_220715_v3p/xtensa-elf/arch/lib/\libhandlers-board.a(xtos-set-inthandler.o)
 .xt.lit        0x00000100        0x0 C:/usr/xtensa/XtDevTools/install/builds/RI-2022.10-win32/HiFi_220715_v3p/xtensa-elf/arch/lib/\libhandlers-board.a(exit.o)
                                          0x8 (size before relaxing)
 .xt.lit        0x00000100        0x8 C:/usr/xtensa/XtDevTools/install/builds/RI-2022.10-win32/HiFi_220715_v3p/xtensa-elf/arch/lib/\libhandlers-board.a(memerror-vector-S--vector-.o)
 .xt.lit        0x00000108       0x10 C:/usr/xtensa/XtDevTools/install/builds/RI-2022.10-win32/HiFi_220715_v3p/xtensa-elf/arch/lib/\libhandlers-board.a(user-vector.o)
 .xt.lit        0x00000118        0x8 C:/usr/xtensa/XtDevTools/install/builds/RI-2022.10-win32/HiFi_220715_v3p/xtensa-elf/arch/lib/\libhandlers-board.a(int-lowpri-dispatcher.o)
 .xt.lit        0x00000120        0x8 C:/usr/xtensa/XtDevTools/install/builds/RI-2022.10-win32/HiFi_220715_v3p/xtensa-elf/arch/lib/\libhandlers-board.a(int-handler-level2.o)
 .xt.lit        0x00000128        0x8 C:/usr/xtensa/XtDevTools/install/builds/RI-2022.10-win32/HiFi_220715_v3p/xtensa-elf/arch/lib/\libhandlers-board.a(exc-syscall-handler.o)
 .xt.lit        0x00000130        0x8 C:/usr/xtensa/XtDevTools/install/builds/RI-2022.10-win32/HiFi_220715_v3p/xtensa-elf/arch/lib/\libhandlers-board.a(memerror-vector-S--handler-.o)
 .xt.lit        0x00000138        0x8 C:/usr/xtensa/XtDevTools/install/builds/RI-2022.10-win32/HiFi_220715_v3p/xtensa-elf/arch/lib/\libhal.a(cache_asm--set_cache_prefetch_long.o)
 .xt.lit        0x00000140       0x10 C:/usr/xtensa/XtDevTools/install/builds/RI-2022.10-win32/HiFi_220715_v3p/xtensa-elf/lib/xcc/crtend.o
 *(.xt.lit.*)
 *(.gnu.linkonce.p.*)

.xtensa.info    0x00000000      0x210
 *(.xtensa.info)
 .xtensa.info   0x00000000      0x210 C:/usr/xtensa/XtDevTools/install/builds/RI-2022.10-win32/HiFi_220715_v3p/xtensa-elf/arch/lib/crt1-boards.o
 .xtensa.info   0x00000210        0x0 C:/usr/xtensa/XtDevTools/install/builds/RI-2022.10-win32/HiFi_220715_v3p/xtensa-elf/lib/xcc/crti.o
 .xtensa.info   0x00000210        0x0 C:/usr/xtensa/XtDevTools/install/builds/RI-2022.10-win32/HiFi_220715_v3p/xtensa-elf/lib/xcc/crtbegin.o
 .xtensa.info   0x00000210        0x0 C:/usr/xtensa/XtDevTools/install/builds/RI-2022.10-win32/HiFi_220715_v3p/xtensa-elf/arch/lib/_sharedvectors.o
 .xtensa.info   0x00000210        0x0 C:/usr/xtensa/XtDevTools/install/builds/RI-2022.10-win32/HiFi_220715_v3p/xtensa-elf/arch/lib/_vectors.o
 .xtensa.info   0x00000210        0x0 D:/Skyworks/DTS/DTSX_VX_INT/SM4G_DTSVX_RT_CH_SWAP/SM4G_HIFI5Core0/bin/HiFi_220715_v3p_HiFi0/Debug/source/au_framework/src/c0_audiobufferhandle.o
 .xtensa.info   0x00000210        0x0 D:/Skyworks/DTS/DTSX_VX_INT/SM4G_DTSVX_RT_CH_SWAP/SM4G_HIFI5Core0/bin/HiFi_220715_v3p_HiFi0/Debug/source/au_framework/src/c0_audiopostprocess.o
 .xtensa.info   0x00000210        0x0 D:/Skyworks/DTS/DTSX_VX_INT/SM4G_DTSVX_RT_CH_SWAP/SM4G_HIFI5Core0/bin/HiFi_220715_v3p_HiFi0/Debug/source/au_framework/src/c0_audioprocess.o
 .xtensa.info   0x00000210        0x0 D:/Skyworks/DTS/DTSX_VX_INT/SM4G_DTSVX_RT_CH_SWAP/SM4G_HIFI5Core0/bin/HiFi_220715_v3p_HiFi0/Debug/source/au_framework/src/c0_main.o
 .xtensa.info   0x00000210        0x0 D:/Skyworks/DTS/DTSX_VX_INT/SM4G_DTSVX_RT_CH_SWAP/SM4G_HIFI5Core0/bin/HiFi_220715_v3p_HiFi0/Debug/source/au_framework/src/isr_handler.o
 .xtensa.info   0x00000210        0x0 D:/Skyworks/DTS/DTSX_VX_INT/SM4G_DTSVX_RT_CH_SWAP/SM4G_HIFI5Core0/bin/HiFi_220715_v3p_HiFi0/Debug/source/au_framework/src/isr_receive.o
 .xtensa.info   0x00000210        0x0 D:/Skyworks/DTS/DTSX_VX_INT/SM4G_DTSVX_RT_CH_SWAP/SM4G_HIFI5Core0/bin/HiFi_220715_v3p_HiFi0/Debug/source/au_framework/src/isr_transmit.o
 .xtensa.info   0x00000210        0x0 D:/Skyworks/DTS/DTSX_VX_INT/SM4G_DTSVX_RT_CH_SWAP/SM4G_HIFI5Core0/bin/HiFi_220715_v3p_HiFi0/Debug/source/customerpostprocess/c0_customerpostprocess.o
 .xtensa.info   0x00000210        0x0 D:/Skyworks/DTS/DTSX_VX_INT/SM4G_DTSVX_RT_CH_SWAP/SM4G_HIFI5Core0/bin/HiFi_220715_v3p_HiFi0/Debug/source/kernel/target/hifi5/targetinit.o
 .xtensa.info   0x00000210        0x0 D:/Skyworks/DTS/DTSX_VX_INT/SM4G_DTSVX_RT_CH_SWAP/SM4G_HIFI5Core0/bin/HiFi_220715_v3p_HiFi0/Debug/source/kernel/target/hifi5/vmem.o
 .xtensa.info   0x00000210        0x0 D:/Skyworks/DTS/DTSX_VX_INT/SM4G_DTSVX_RT_CH_SWAP/libdrv\libdrv_HIFI0.a(bufmgr.o)
 .xtensa.info   0x00000210        0x0 D:/Skyworks/DTS/DTSX_VX_INT/SM4G_DTSVX_RT_CH_SWAP/libdrv\libdrv_HIFI0.a(clkrst.o)
 .xtensa.info   0x00000210        0x0 D:/Skyworks/DTS/DTSX_VX_INT/SM4G_DTSVX_RT_CH_SWAP/libdrv\libdrv_HIFI0.a(i2srx.o)
 .xtensa.info   0x00000210        0x0 D:/Skyworks/DTS/DTSX_VX_INT/SM4G_DTSVX_RT_CH_SWAP/libdrv\libdrv_HIFI0.a(i2stx.o)
 .xtensa.info   0x00000210        0x0 D:/Skyworks/DTS/DTSX_VX_INT/SM4G_DTSVX_RT_CH_SWAP/libdrv\libdrv_HIFI0.a(int.o)
 .xtensa.info   0x00000210        0x0 D:/Skyworks/DTS/DTSX_VX_INT/SM4G_DTSVX_RT_CH_SWAP/libdrv\libdrv_HIFI0.a(mutex.o)
 .xtensa.info   0x00000210        0x0 D:/Skyworks/DTS/DTSX_VX_INT/SM4G_DTSVX_RT_CH_SWAP/libdrv\libdrv_HIFI0.a(padcfg.o)
 .xtensa.info   0x00000210        0x0 D:/Skyworks/DTS/DTSX_VX_INT/SM4G_DTSVX_RT_CH_SWAP/libdrv\libdrv_HIFI0.a(pinmux.o)
 .xtensa.info   0x00000210        0x0 D:/Skyworks/DTS/DTSX_VX_INT/SM4G_DTSVX_RT_CH_SWAP/libdrv\libdrv_HIFI0.a(pll.o)
 .xtensa.info   0x00000210        0x0 D:/Skyworks/DTS/DTSX_VX_INT/SM4G_DTSVX_RT_CH_SWAP/libdrv\libdrv_HIFI0.a(frt.o)
 .xtensa.info   0x00000210        0x0 C:/usr/xtensa/XtDevTools/install/builds/RI-2022.10-win32/HiFi_220715_v3p/xtensa-elf/lib/\libc.a(memcmp.o)
 .xtensa.info   0x00000210        0x0 C:/usr/xtensa/XtDevTools/install/builds/RI-2022.10-win32/HiFi_220715_v3p/xtensa-elf/lib/\libc.a(clibrary_init.o)
 .xtensa.info   0x00000210        0x0 C:/usr/xtensa/XtDevTools/install/builds/RI-2022.10-win32/HiFi_220715_v3p/xtensa-elf/lib/\libc.a(xtensa_exit.o)
 .xtensa.info   0x00000210        0x0 C:/usr/xtensa/XtDevTools/install/builds/RI-2022.10-win32/HiFi_220715_v3p/xtensa-elf/lib/\libc.a(reent_bss.o)
 .xtensa.info   0x00000210        0x0 C:/usr/xtensa/XtDevTools/install/builds/RI-2022.10-win32/HiFi_220715_v3p/xtensa-elf/lib/\libc.a(memcpy.o)
 .xtensa.info   0x00000210        0x0 C:/usr/xtensa/XtDevTools/install/builds/RI-2022.10-win32/HiFi_220715_v3p/xtensa-elf/lib/\libc.a(memset.o)
 .xtensa.info   0x00000210        0x0 C:/usr/xtensa/XtDevTools/install/builds/RI-2022.10-win32/HiFi_220715_v3p/xtensa-elf/lib/\libc.a(xexit.o)
 .xtensa.info   0x00000210        0x0 C:/usr/xtensa/XtDevTools/install/builds/RI-2022.10-win32/HiFi_220715_v3p/xtensa-elf/lib/\libc.a(environ.o)
 .xtensa.info   0x00000210        0x0 C:/usr/xtensa/XtDevTools/install/builds/RI-2022.10-win32/HiFi_220715_v3p/xtensa-elf/lib/\libgdbio.a(miniboard.o)
 .xtensa.info   0x00000210        0x0 C:/usr/xtensa/XtDevTools/install/builds/RI-2022.10-win32/HiFi_220715_v3p/xtensa-elf/arch/lib/\libhandler-reset.a(reset-vector.o)
 .xtensa.info   0x00000210        0x0 C:/usr/xtensa/XtDevTools/install/builds/RI-2022.10-win32/HiFi_220715_v3p/xtensa-elf/arch/lib/\libhandlers-board.a(debug-vector.o)
 .xtensa.info   0x00000210        0x0 C:/usr/xtensa/XtDevTools/install/builds/RI-2022.10-win32/HiFi_220715_v3p/xtensa-elf/arch/lib/\libhandlers-board.a(double-vector.o)
 .xtensa.info   0x00000210        0x0 C:/usr/xtensa/XtDevTools/install/builds/RI-2022.10-win32/HiFi_220715_v3p/xtensa-elf/arch/lib/\libhandlers-board.a(kernel-vector.o)
 .xtensa.info   0x00000210        0x0 C:/usr/xtensa/XtDevTools/install/builds/RI-2022.10-win32/HiFi_220715_v3p/xtensa-elf/arch/lib/\libhandlers-board.a(memctl_default.o)
 .xtensa.info   0x00000210        0x0 C:/usr/xtensa/XtDevTools/install/builds/RI-2022.10-win32/HiFi_220715_v3p/xtensa-elf/arch/lib/\libhandlers-board.a(xtos-interrupt-enable.o)
 .xtensa.info   0x00000210        0x0 C:/usr/xtensa/XtDevTools/install/builds/RI-2022.10-win32/HiFi_220715_v3p/xtensa-elf/arch/lib/\libhandlers-board.a(xtos-interrupt-disable.o)
 .xtensa.info   0x00000210        0x0 C:/usr/xtensa/XtDevTools/install/builds/RI-2022.10-win32/HiFi_220715_v3p/xtensa-elf/arch/lib/\libhandlers-board.a(xtos-set-inthandler.o)
 .xtensa.info   0x00000210        0x0 C:/usr/xtensa/XtDevTools/install/builds/RI-2022.10-win32/HiFi_220715_v3p/xtensa-elf/arch/lib/\libhandlers-board.a(exit.o)
 .xtensa.info   0x00000210        0x0 C:/usr/xtensa/XtDevTools/install/builds/RI-2022.10-win32/HiFi_220715_v3p/xtensa-elf/arch/lib/\libhandlers-board.a(interrupt-table.o)
 .xtensa.info   0x00000210        0x0 C:/usr/xtensa/XtDevTools/install/builds/RI-2022.10-win32/HiFi_220715_v3p/xtensa-elf/arch/lib/\libhandlers-board.a(memerror-vector-S--vector-.o)
 .xtensa.info   0x00000210        0x0 C:/usr/xtensa/XtDevTools/install/builds/RI-2022.10-win32/HiFi_220715_v3p/xtensa-elf/arch/lib/\libhandlers-board.a(user-vector.o)
 .xtensa.info   0x00000210        0x0 C:/usr/xtensa/XtDevTools/install/builds/RI-2022.10-win32/HiFi_220715_v3p/xtensa-elf/arch/lib/\libhandlers-board.a(int-lowpri-dispatcher.o)
 .xtensa.info   0x00000210        0x0 C:/usr/xtensa/XtDevTools/install/builds/RI-2022.10-win32/HiFi_220715_v3p/xtensa-elf/arch/lib/\libhandlers-board.a(window-vectors.o)
 .xtensa.info   0x00000210        0x0 C:/usr/xtensa/XtDevTools/install/builds/RI-2022.10-win32/HiFi_220715_v3p/xtensa-elf/arch/lib/\libhandlers-board.a(int-vector-level2.o)
 .xtensa.info   0x00000210        0x0 C:/usr/xtensa/XtDevTools/install/builds/RI-2022.10-win32/HiFi_220715_v3p/xtensa-elf/arch/lib/\libhandlers-board.a(int-handler-level2.o)
 .xtensa.info   0x00000210        0x0 C:/usr/xtensa/XtDevTools/install/builds/RI-2022.10-win32/HiFi_220715_v3p/xtensa-elf/arch/lib/\libhandlers-board.a(exc-unhandled.o)
 .xtensa.info   0x00000210        0x0 C:/usr/xtensa/XtDevTools/install/builds/RI-2022.10-win32/HiFi_220715_v3p/xtensa-elf/arch/lib/\libhandlers-board.a(exc-syscall-handler.o)
 .xtensa.info   0x00000210        0x0 C:/usr/xtensa/XtDevTools/install/builds/RI-2022.10-win32/HiFi_220715_v3p/xtensa-elf/arch/lib/\libhandlers-board.a(memerror-vector-S--handler-.o)
 .xtensa.info   0x00000210        0x0 C:/usr/xtensa/XtDevTools/install/builds/RI-2022.10-win32/HiFi_220715_v3p/xtensa-elf/arch/lib/\libhandlers-board.a(exc-return.o)
 .xtensa.info   0x00000210        0x0 C:/usr/xtensa/XtDevTools/install/builds/RI-2022.10-win32/HiFi_220715_v3p/xtensa-elf/arch/lib/\libhal.a(cache_asm--dcache_all_writeback.o)
 .xtensa.info   0x00000210        0x0 C:/usr/xtensa/XtDevTools/install/builds/RI-2022.10-win32/HiFi_220715_v3p/xtensa-elf/arch/lib/\libhal.a(cache_asm--dcache_region_writeback.o)
 .xtensa.info   0x00000210        0x0 C:/usr/xtensa/XtDevTools/install/builds/RI-2022.10-win32/HiFi_220715_v3p/xtensa-elf/arch/lib/\libhal.a(cache_asm--dcache_region_writeback_inv.o)
 .xtensa.info   0x00000210        0x0 C:/usr/xtensa/XtDevTools/install/builds/RI-2022.10-win32/HiFi_220715_v3p/xtensa-elf/arch/lib/\libhal.a(cache_asm--hw_configid0.o)
 .xtensa.info   0x00000210        0x0 C:/usr/xtensa/XtDevTools/install/builds/RI-2022.10-win32/HiFi_220715_v3p/xtensa-elf/arch/lib/\libhal.a(cache_asm--hw_configid1.o)
 .xtensa.info   0x00000210        0x0 C:/usr/xtensa/XtDevTools/install/builds/RI-2022.10-win32/HiFi_220715_v3p/xtensa-elf/arch/lib/\libhal.a(cache_asm--release_major.o)
 .xtensa.info   0x00000210        0x0 C:/usr/xtensa/XtDevTools/install/builds/RI-2022.10-win32/HiFi_220715_v3p/xtensa-elf/arch/lib/\libhal.a(cache_asm--release_minor.o)
 .xtensa.info   0x00000210        0x0 C:/usr/xtensa/XtDevTools/install/builds/RI-2022.10-win32/HiFi_220715_v3p/xtensa-elf/arch/lib/\libhal.a(cache_asm--set_cache_prefetch_long.o)
 .xtensa.info   0x00000210        0x0 C:/usr/xtensa/XtDevTools/install/builds/RI-2022.10-win32/HiFi_220715_v3p/xtensa-elf/arch/lib/\libhal.a(const--intlevel.o)
 .xtensa.info   0x00000210        0x0 C:/usr/xtensa/XtDevTools/install/builds/RI-2022.10-win32/HiFi_220715_v3p/xtensa-elf/lib/xcc/crtend.o
 .xtensa.info   0x00000210        0x0 C:/usr/xtensa/XtDevTools/install/builds/RI-2022.10-win32/HiFi_220715_v3p/xtensa-elf/lib/xcc/crtn.o

.debug.xt.callgraph
 *(.debug.xt.callgraph .debug.xt.callgraph.* .gnu.linkonce.xt.callgraph.*)

.comment        0x00000000       0x28
 *(.comment)
 .comment       0x00000000       0x28 C:/usr/xtensa/XtDevTools/install/builds/RI-2022.10-win32/HiFi_220715_v3p/xtensa-elf/lib/xcc/crtbegin.o
                                         0x29 (size before relaxing)
 .comment       0x00000028       0x29 D:/Skyworks/DTS/DTSX_VX_INT/SM4G_DTSVX_RT_CH_SWAP/SM4G_HIFI5Core0/bin/HiFi_220715_v3p_HiFi0/Debug/source/au_framework/src/c0_audiobufferhandle.o
 .comment       0x00000028       0x29 D:/Skyworks/DTS/DTSX_VX_INT/SM4G_DTSVX_RT_CH_SWAP/SM4G_HIFI5Core0/bin/HiFi_220715_v3p_HiFi0/Debug/source/au_framework/src/c0_audiopostprocess.o
 .comment       0x00000028       0x29 D:/Skyworks/DTS/DTSX_VX_INT/SM4G_DTSVX_RT_CH_SWAP/SM4G_HIFI5Core0/bin/HiFi_220715_v3p_HiFi0/Debug/source/au_framework/src/c0_audioprocess.o
 .comment       0x00000028       0x29 D:/Skyworks/DTS/DTSX_VX_INT/SM4G_DTSVX_RT_CH_SWAP/SM4G_HIFI5Core0/bin/HiFi_220715_v3p_HiFi0/Debug/source/au_framework/src/c0_main.o
 .comment       0x00000028       0x29 D:/Skyworks/DTS/DTSX_VX_INT/SM4G_DTSVX_RT_CH_SWAP/SM4G_HIFI5Core0/bin/HiFi_220715_v3p_HiFi0/Debug/source/au_framework/src/isr_handler.o
 .comment       0x00000028       0x29 D:/Skyworks/DTS/DTSX_VX_INT/SM4G_DTSVX_RT_CH_SWAP/SM4G_HIFI5Core0/bin/HiFi_220715_v3p_HiFi0/Debug/source/au_framework/src/isr_receive.o
 .comment       0x00000028       0x29 D:/Skyworks/DTS/DTSX_VX_INT/SM4G_DTSVX_RT_CH_SWAP/SM4G_HIFI5Core0/bin/HiFi_220715_v3p_HiFi0/Debug/source/au_framework/src/isr_transmit.o
 .comment       0x00000028       0x29 D:/Skyworks/DTS/DTSX_VX_INT/SM4G_DTSVX_RT_CH_SWAP/SM4G_HIFI5Core0/bin/HiFi_220715_v3p_HiFi0/Debug/source/customerpostprocess/c0_customerpostprocess.o
 .comment       0x00000028       0x29 D:/Skyworks/DTS/DTSX_VX_INT/SM4G_DTSVX_RT_CH_SWAP/SM4G_HIFI5Core0/bin/HiFi_220715_v3p_HiFi0/Debug/source/kernel/target/hifi5/targetinit.o
 .comment       0x00000028       0x29 D:/Skyworks/DTS/DTSX_VX_INT/SM4G_DTSVX_RT_CH_SWAP/SM4G_HIFI5Core0/bin/HiFi_220715_v3p_HiFi0/Debug/source/kernel/target/hifi5/vmem.o
 .comment       0x00000028       0x29 D:/Skyworks/DTS/DTSX_VX_INT/SM4G_DTSVX_RT_CH_SWAP/libdrv\libdrv_HIFI0.a(bufmgr.o)
 .comment       0x00000028       0x29 D:/Skyworks/DTS/DTSX_VX_INT/SM4G_DTSVX_RT_CH_SWAP/libdrv\libdrv_HIFI0.a(clkrst.o)
 .comment       0x00000028       0x29 D:/Skyworks/DTS/DTSX_VX_INT/SM4G_DTSVX_RT_CH_SWAP/libdrv\libdrv_HIFI0.a(i2srx.o)
 .comment       0x00000028       0x29 D:/Skyworks/DTS/DTSX_VX_INT/SM4G_DTSVX_RT_CH_SWAP/libdrv\libdrv_HIFI0.a(i2stx.o)
 .comment       0x00000028       0x29 D:/Skyworks/DTS/DTSX_VX_INT/SM4G_DTSVX_RT_CH_SWAP/libdrv\libdrv_HIFI0.a(int.o)
 .comment       0x00000028       0x29 D:/Skyworks/DTS/DTSX_VX_INT/SM4G_DTSVX_RT_CH_SWAP/libdrv\libdrv_HIFI0.a(mutex.o)
 .comment       0x00000028       0x29 D:/Skyworks/DTS/DTSX_VX_INT/SM4G_DTSVX_RT_CH_SWAP/libdrv\libdrv_HIFI0.a(padcfg.o)
 .comment       0x00000028       0x29 D:/Skyworks/DTS/DTSX_VX_INT/SM4G_DTSVX_RT_CH_SWAP/libdrv\libdrv_HIFI0.a(pinmux.o)
 .comment       0x00000028       0x29 D:/Skyworks/DTS/DTSX_VX_INT/SM4G_DTSVX_RT_CH_SWAP/libdrv\libdrv_HIFI0.a(pll.o)
 .comment       0x00000028       0x29 D:/Skyworks/DTS/DTSX_VX_INT/SM4G_DTSVX_RT_CH_SWAP/libdrv\libdrv_HIFI0.a(frt.o)
 .comment       0x00000028       0x29 C:/usr/xtensa/XtDevTools/install/builds/RI-2022.10-win32/HiFi_220715_v3p/xtensa-elf/lib/\libc.a(memcmp.o)
 .comment       0x00000028       0x29 C:/usr/xtensa/XtDevTools/install/builds/RI-2022.10-win32/HiFi_220715_v3p/xtensa-elf/lib/\libc.a(clibrary_init.o)
 .comment       0x00000028       0x29 C:/usr/xtensa/XtDevTools/install/builds/RI-2022.10-win32/HiFi_220715_v3p/xtensa-elf/lib/\libc.a(xtensa_exit.o)
 .comment       0x00000028       0x29 C:/usr/xtensa/XtDevTools/install/builds/RI-2022.10-win32/HiFi_220715_v3p/xtensa-elf/lib/\libc.a(reent_bss.o)
 .comment       0x00000028       0x29 C:/usr/xtensa/XtDevTools/install/builds/RI-2022.10-win32/HiFi_220715_v3p/xtensa-elf/lib/\libc.a(xexit.o)
 .comment       0x00000028       0x29 C:/usr/xtensa/XtDevTools/install/builds/RI-2022.10-win32/HiFi_220715_v3p/xtensa-elf/lib/\libc.a(environ.o)
 .comment       0x00000028       0x29 C:/usr/xtensa/XtDevTools/install/builds/RI-2022.10-win32/HiFi_220715_v3p/xtensa-elf/lib/\libgdbio.a(miniboard.o)
 .comment       0x00000028       0x29 C:/usr/xtensa/XtDevTools/install/builds/RI-2022.10-win32/HiFi_220715_v3p/xtensa-elf/arch/lib/\libhandlers-board.a(xtos-interrupt-enable.o)
 .comment       0x00000028       0x29 C:/usr/xtensa/XtDevTools/install/builds/RI-2022.10-win32/HiFi_220715_v3p/xtensa-elf/arch/lib/\libhandlers-board.a(xtos-interrupt-disable.o)
 .comment       0x00000028       0x29 C:/usr/xtensa/XtDevTools/install/builds/RI-2022.10-win32/HiFi_220715_v3p/xtensa-elf/arch/lib/\libhandlers-board.a(xtos-set-inthandler.o)
 .comment       0x00000028       0x29 C:/usr/xtensa/XtDevTools/install/builds/RI-2022.10-win32/HiFi_220715_v3p/xtensa-elf/arch/lib/\libhal.a(const--intlevel.o)
 .comment       0x00000028       0x29 C:/usr/xtensa/XtDevTools/install/builds/RI-2022.10-win32/HiFi_220715_v3p/xtensa-elf/lib/xcc/crtend.o

.note.GNU-stack
                0x00000000        0x0
 *(.note.GNU-stack)
 .note.GNU-stack
                0x00000000        0x0 C:/usr/xtensa/XtDevTools/install/builds/RI-2022.10-win32/HiFi_220715_v3p/xtensa-elf/lib/xcc/crtbegin.o
 .note.GNU-stack
                0x00000000        0x0 D:/Skyworks/DTS/DTSX_VX_INT/SM4G_DTSVX_RT_CH_SWAP/SM4G_HIFI5Core0/bin/HiFi_220715_v3p_HiFi0/Debug/source/au_framework/src/c0_audiobufferhandle.o
 .note.GNU-stack
                0x00000000        0x0 D:/Skyworks/DTS/DTSX_VX_INT/SM4G_DTSVX_RT_CH_SWAP/SM4G_HIFI5Core0/bin/HiFi_220715_v3p_HiFi0/Debug/source/au_framework/src/c0_audiopostprocess.o
 .note.GNU-stack
                0x00000000        0x0 D:/Skyworks/DTS/DTSX_VX_INT/SM4G_DTSVX_RT_CH_SWAP/SM4G_HIFI5Core0/bin/HiFi_220715_v3p_HiFi0/Debug/source/au_framework/src/c0_audioprocess.o
 .note.GNU-stack
                0x00000000        0x0 D:/Skyworks/DTS/DTSX_VX_INT/SM4G_DTSVX_RT_CH_SWAP/SM4G_HIFI5Core0/bin/HiFi_220715_v3p_HiFi0/Debug/source/au_framework/src/c0_main.o
 .note.GNU-stack
                0x00000000        0x0 D:/Skyworks/DTS/DTSX_VX_INT/SM4G_DTSVX_RT_CH_SWAP/SM4G_HIFI5Core0/bin/HiFi_220715_v3p_HiFi0/Debug/source/au_framework/src/isr_handler.o
 .note.GNU-stack
                0x00000000        0x0 D:/Skyworks/DTS/DTSX_VX_INT/SM4G_DTSVX_RT_CH_SWAP/SM4G_HIFI5Core0/bin/HiFi_220715_v3p_HiFi0/Debug/source/au_framework/src/isr_receive.o
 .note.GNU-stack
                0x00000000        0x0 D:/Skyworks/DTS/DTSX_VX_INT/SM4G_DTSVX_RT_CH_SWAP/SM4G_HIFI5Core0/bin/HiFi_220715_v3p_HiFi0/Debug/source/au_framework/src/isr_transmit.o
 .note.GNU-stack
                0x00000000        0x0 D:/Skyworks/DTS/DTSX_VX_INT/SM4G_DTSVX_RT_CH_SWAP/SM4G_HIFI5Core0/bin/HiFi_220715_v3p_HiFi0/Debug/source/customerpostprocess/c0_customerpostprocess.o
 .note.GNU-stack
                0x00000000        0x0 D:/Skyworks/DTS/DTSX_VX_INT/SM4G_DTSVX_RT_CH_SWAP/SM4G_HIFI5Core0/bin/HiFi_220715_v3p_HiFi0/Debug/source/kernel/target/hifi5/targetinit.o
 .note.GNU-stack
                0x00000000        0x0 D:/Skyworks/DTS/DTSX_VX_INT/SM4G_DTSVX_RT_CH_SWAP/SM4G_HIFI5Core0/bin/HiFi_220715_v3p_HiFi0/Debug/source/kernel/target/hifi5/vmem.o
 .note.GNU-stack
                0x00000000        0x0 D:/Skyworks/DTS/DTSX_VX_INT/SM4G_DTSVX_RT_CH_SWAP/libdrv\libdrv_HIFI0.a(bufmgr.o)
 .note.GNU-stack
                0x00000000        0x0 D:/Skyworks/DTS/DTSX_VX_INT/SM4G_DTSVX_RT_CH_SWAP/libdrv\libdrv_HIFI0.a(clkrst.o)
 .note.GNU-stack
                0x00000000        0x0 D:/Skyworks/DTS/DTSX_VX_INT/SM4G_DTSVX_RT_CH_SWAP/libdrv\libdrv_HIFI0.a(i2srx.o)
 .note.GNU-stack
                0x00000000        0x0 D:/Skyworks/DTS/DTSX_VX_INT/SM4G_DTSVX_RT_CH_SWAP/libdrv\libdrv_HIFI0.a(i2stx.o)
 .note.GNU-stack
                0x00000000        0x0 D:/Skyworks/DTS/DTSX_VX_INT/SM4G_DTSVX_RT_CH_SWAP/libdrv\libdrv_HIFI0.a(int.o)
 .note.GNU-stack
                0x00000000        0x0 D:/Skyworks/DTS/DTSX_VX_INT/SM4G_DTSVX_RT_CH_SWAP/libdrv\libdrv_HIFI0.a(mutex.o)
 .note.GNU-stack
                0x00000000        0x0 D:/Skyworks/DTS/DTSX_VX_INT/SM4G_DTSVX_RT_CH_SWAP/libdrv\libdrv_HIFI0.a(padcfg.o)
 .note.GNU-stack
                0x00000000        0x0 D:/Skyworks/DTS/DTSX_VX_INT/SM4G_DTSVX_RT_CH_SWAP/libdrv\libdrv_HIFI0.a(pinmux.o)
 .note.GNU-stack
                0x00000000        0x0 D:/Skyworks/DTS/DTSX_VX_INT/SM4G_DTSVX_RT_CH_SWAP/libdrv\libdrv_HIFI0.a(pll.o)
 .note.GNU-stack
                0x00000000        0x0 D:/Skyworks/DTS/DTSX_VX_INT/SM4G_DTSVX_RT_CH_SWAP/libdrv\libdrv_HIFI0.a(frt.o)
 .note.GNU-stack
                0x00000000        0x0 C:/usr/xtensa/XtDevTools/install/builds/RI-2022.10-win32/HiFi_220715_v3p/xtensa-elf/lib/\libc.a(memcmp.o)
 .note.GNU-stack
                0x00000000        0x0 C:/usr/xtensa/XtDevTools/install/builds/RI-2022.10-win32/HiFi_220715_v3p/xtensa-elf/lib/\libc.a(clibrary_init.o)
 .note.GNU-stack
                0x00000000        0x0 C:/usr/xtensa/XtDevTools/install/builds/RI-2022.10-win32/HiFi_220715_v3p/xtensa-elf/lib/\libc.a(xtensa_exit.o)
 .note.GNU-stack
                0x00000000        0x0 C:/usr/xtensa/XtDevTools/install/builds/RI-2022.10-win32/HiFi_220715_v3p/xtensa-elf/lib/\libc.a(reent_bss.o)
 .note.GNU-stack
                0x00000000        0x0 C:/usr/xtensa/XtDevTools/install/builds/RI-2022.10-win32/HiFi_220715_v3p/xtensa-elf/lib/\libc.a(xexit.o)
 .note.GNU-stack
                0x00000000        0x0 C:/usr/xtensa/XtDevTools/install/builds/RI-2022.10-win32/HiFi_220715_v3p/xtensa-elf/lib/\libc.a(environ.o)
 .note.GNU-stack
                0x00000000        0x0 C:/usr/xtensa/XtDevTools/install/builds/RI-2022.10-win32/HiFi_220715_v3p/xtensa-elf/lib/\libgdbio.a(miniboard.o)
 .note.GNU-stack
                0x00000000        0x0 C:/usr/xtensa/XtDevTools/install/builds/RI-2022.10-win32/HiFi_220715_v3p/xtensa-elf/arch/lib/\libhandlers-board.a(xtos-interrupt-enable.o)
 .note.GNU-stack
                0x00000000        0x0 C:/usr/xtensa/XtDevTools/install/builds/RI-2022.10-win32/HiFi_220715_v3p/xtensa-elf/arch/lib/\libhandlers-board.a(xtos-interrupt-disable.o)
 .note.GNU-stack
                0x00000000        0x0 C:/usr/xtensa/XtDevTools/install/builds/RI-2022.10-win32/HiFi_220715_v3p/xtensa-elf/arch/lib/\libhandlers-board.a(xtos-set-inthandler.o)
 .note.GNU-stack
                0x00000000        0x0 C:/usr/xtensa/XtDevTools/install/builds/RI-2022.10-win32/HiFi_220715_v3p/xtensa-elf/arch/lib/\libhal.a(const--intlevel.o)
 .note.GNU-stack
                0x00000000        0x0 C:/usr/xtensa/XtDevTools/install/builds/RI-2022.10-win32/HiFi_220715_v3p/xtensa-elf/lib/xcc/crtend.o
OUTPUT(D:/Skyworks/DTS/DTSX_VX_INT/SM4G_DTSVX_RT_CH_SWAP/SM4G_HIFI5Core0/bin/HiFi_220715_v3p_HiFi0/Debug/SM4G_HIFI5Core0 elf32-xtensa-le)

Memory Configuration

Name                 Origin          Length          Used            Unused          Attributes
srom0_seg            0x50000000      0x000002e0      0x0000012c      0x000001b4      
srom1_seg            0x500002e0      0x00000030      0x00000008      0x00000028      
srom2_seg            0x50000310      0x00000180      0x000000b0      0x000000d0      
srom3_seg            0x50000490      0x00000b70      0x00000000      0x00000b70      
sram0_seg            0x60000000      0x00000178      0x0000016c      0x0000000c      
sram1_seg            0x60000178      0x00000004      0x00000000      0x00000004      
sram2_seg            0x6000017c      0x0000001c      0x00000008      0x00000014      
sram3_seg            0x60000198      0x00000008      0x00000000      0x00000008      
sram4_seg            0x600001a0      0x00000038      0x0000000c      0x0000002c      
sram5_seg            0x600001d8      0x00000004      0x00000000      0x00000004      
sram6_seg            0x600001dc      0x0000001c      0x00000008      0x00000014      
sram7_seg            0x600001f8      0x00000004      0x00000004      0x00000000      
sram8_seg            0x600001fc      0x0000001c      0x0000000c      0x00000010      
sram9_seg            0x60000218      0x00000004      0x00000000      0x00000004      
sram10_seg           0x6000021c      0x0000001c      0x00000008      0x00000014      
KERNEL_CODE_DATA_seg 0x60000238      0x00008400      0x00006328      0x000020d8      
FRAMEWORK_CODE_seg   0x60008638      0x0001f400      0x000026f8      0x0001cd08      
FRAMEWORK_DATA_seg   0x60027a38      0x00025800      0x0000cde0      0x00018a20      
INBITSTREAM_DATA_seg 0x6004d238      0x0000c000      0x00004008      0x00007ff8      
ICC_HOST_DATA_seg    0x80000000      0x0000a000      0x00001a78      0x00008588      
ICC_DSP_DATA_seg     0x8000a000      0x0000c800      0x00000238      0x0000c5c8      
ICC_OUTPCM_DATA_seg  0x80016800      0x00060000      0x0000c000      0x00054000      
ICC_METADATA_seg     0x80076800      0x0004f000      0x00000000      0x0004f000      
ICC_RESERVED_MEM_seg 0x800c5800      0x0000c800      0x00000000      0x0000c800      
FRAMEWORK_UC_seg     0x80343000      0x00008000      0x00000000      0x00008000      
*default*            0x00000000      0xffffffff      
